

Microchip MPLAB XC8 Assembler V2.32 build 20210201212658 
                                                                                               Wed Oct 20 17:58:52 2021

Microchip MPLAB XC8 C Compiler v2.32 (Free license) build 20210201212658 Og1 
     1                           	processor	18F27Q43
     2                           	fnconf	rparam,??,?,0
     3                           	pagewidth 120
     4                           	opt	flic
     5                           	psect	idataCOMRAM,global,class=CODE,delta=1,noexec
     6                           	psect	nvCOMRAM,global,class=COMRAM,space=1,delta=1,lowdata,noexec
     7                           	psect	cinit,global,reloc=2,class=CODE,delta=1
     8                           	psect	bssCOMRAM,global,class=COMRAM,space=1,delta=1,lowdata,noexec
     9                           	psect	dataCOMRAM,global,class=COMRAM,space=1,delta=1,lowdata,noexec
    10                           	psect	cstackCOMRAM,global,class=COMRAM,space=1,delta=1,lowdata,noexec
    11                           	psect	text0,global,reloc=2,class=CODE,delta=1
    12                           	psect	text1,global,reloc=2,class=CODE,delta=1
    13                           	psect	text2,global,reloc=2,class=CODE,delta=1
    14                           	psect	text3,global,reloc=2,class=CODE,delta=1
    15                           	psect	text4,global,reloc=2,class=CODE,delta=1
    16                           	psect	text5,global,reloc=2,class=CODE,delta=1
    17                           	psect	text6,global,reloc=2,class=CODE,delta=1
    18                           	psect	text7,global,reloc=2,class=CODE,delta=1
    19                           	psect	text8,global,reloc=2,class=CODE,delta=1
    20                           	psect	text9,global,reloc=2,class=CODE,delta=1
    21                           	psect	text10,global,reloc=2,class=CODE,delta=1
    22                           	psect	text11,global,reloc=2,class=CODE,delta=1
    23                           	psect	text12,global,reloc=2,class=CODE,delta=1
    24                           	psect	text13,global,reloc=2,class=CODE,delta=1
    25                           	psect	text14,global,reloc=2,class=CODE,delta=1
    26                           	psect	text15,global,reloc=2,class=CODE,delta=1
    27                           	psect	text16,global,reloc=2,class=CODE,delta=1
    28                           	psect	text17,global,reloc=2,class=CODE,delta=1
    29                           	psect	text18,global,reloc=2,class=CODE,delta=1
    30                           	psect	text19,global,reloc=2,class=CODE,delta=1
    31                           	psect	text20,global,reloc=2,class=CODE,delta=1
    32                           	psect	text21,global,reloc=2,class=CODE,delta=1
    33                           	psect	text22,global,reloc=2,class=CODE,delta=1
    34                           	psect	text23,global,reloc=2,class=CODE,delta=1
    35                           	psect	text24,global,reloc=2,class=CODE,delta=1
    36                           	psect	text25,global,reloc=2,class=CODE,delta=1
    37                           	psect	text26,global,reloc=2,class=CODE,delta=1
    38                           	psect	text27,global,reloc=2,class=CODE,delta=1
    39                           	psect	text28,global,reloc=2,class=CODE,delta=1
    40                           	psect	text29,global,reloc=2,class=CODE,delta=1
    41                           	psect	text30,global,reloc=2,class=CODE,delta=1
    42                           	psect	text31,global,reloc=2,class=CODE,delta=1
    43                           	psect	text32,global,reloc=2,class=CODE,delta=1
    44                           	psect	text33,global,reloc=2,class=CODE,delta=1
    45                           	psect	text34,global,reloc=2,class=CODE,delta=1
    46                           	psect	ivt0x8,global,reloc=2,class=CODE,delta=1,noexec,keep,optim=
    47                           	psect	intsave_regs,global,class=BIGRAM,space=1,delta=1,noexec
    48                           	psect	text35,global,reloc=2,class=CODE,delta=1
    49                           	psect	rparam,global,class=COMRAM,space=1,delta=1,noexec
    50                           	psect	idloc,global,abs,ovrld,class=IDLOC,space=5,delta=1,noexec
    51                           	psect	config,global,abs,ovrld,class=CONFIG,space=4,delta=1,noexec
    52  0000                     
    53                           ; Version 2.32
    54                           ; Generated 10/02/2021 GMT
    55                           ; 
    56                           ; Copyright © 2021, Microchip Technology Inc. and its subsidiaries ("Microchip")
    57                           ; All rights reserved.
    58                           ; 
    59                           ; This software is developed by Microchip Technology Inc. and its subsidiaries ("Microch
      +                          ip").
    60                           ; 
    61                           ; Redistribution and use in source and binary forms, with or without modification, are
    62                           ; permitted provided that the following conditions are met:
    63                           ; 
    64                           ;     1. Redistributions of source code must retain the above copyright notice, this lis
      +                          t of
    65                           ;        conditions and the following disclaimer.
    66                           ; 
    67                           ;     2. Redistributions in binary form must reproduce the above copyright notice, this 
      +                          list
    68                           ;        of conditions and the following disclaimer in the documentation and/or other
    69                           ;        materials provided with the distribution. Publication is not required when
    70                           ;        this file is used in an embedded application.
    71                           ; 
    72                           ;     3. Microchip's name may not be used to endorse or promote products derived from th
      +                          is
    73                           ;        software without specific prior written permission.
    74                           ; 
    75                           ; THIS SOFTWARE IS PROVIDED BY MICROCHIP "AS IS" AND ANY EXPRESS OR IMPLIED WARRANTIES,
    76                           ; INCLUDING, BUT NOT LIMITED TO, THE IMPLIED WARRANTIES OF MERCHANTABILITY AND FITNESS F
      +                          OR
    77                           ; PURPOSE ARE DISCLAIMED.  IN NO EVENT SHALL MICROCHIP BE LIABLE FOR ANY DIRECT, INDIREC
      +                          T,
    78                           ; INCIDENTAL, SPECIAL, EXEMPLARY, OR CONSEQUENTIAL DAMAGES (INCLUDING BUT NOT LIMITED TO
    79                           ; PROCUREMENT OF SUBSTITUTE GOODS OR SERVICES; LOSS OF USE, DATA OR PROFITS; OR BUSINESS
    80                           ; INTERRUPTION) HOWSOEVER CAUSED AND ON ANY THEORY OF LIABILITY, WHETHER IN CONTRACT, ST
      +                          RICT
    81                           ; LIABILITY, OR TORT (INCLUDING NEGLIGENCE OR OTHERWISE) ARISING IN ANY WAY OUT OF THE U
      +                          SE OF
    82                           ; THIS SOFTWARE, EVEN IF ADVISED OF THE POSSIBILITY OF SUCH DAMAGE.
    83                           ; 
    84                           ; 
    85                           ; Code-generator required, PIC18F27Q43 Definitions
    86                           ; 
    87                           ; SFR Addresses
    88  0000                     
    89                           	psect	idataCOMRAM
    90  0007F8                     __pidataCOMRAM:
    91                           	callstack 0
    92                           
    93                           ;initializer for main@F16335
    94  0007F8  68                 	db	104
    95  0007F9  65                 	db	101
    96  0007FA  6C                 	db	108
    97  0007FB  6C                 	db	108
    98  0007FC  6F                 	db	111
    99  0007FD  00                 	db	0
   100                           
   101                           	psect	nvCOMRAM
   102  00051F                     __pnvCOMRAM:
   103                           	callstack 0
   104  00051F                     _UART1_ErrorHandler:
   105                           	callstack 0
   106  00051F                     	ds	3
   107  000522                     _UART1_OverrunErrorHandler:
   108                           	callstack 0
   109  000522                     	ds	3
   110  000525                     _UART1_FramingErrorHandler:
   111                           	callstack 0
   112  000525                     	ds	3
   113  000528                     _TMR1_InterruptHandler:
   114                           	callstack 0
   115  000528                     	ds	3
   116  00052B                     _ADCC_ADI_InterruptHandler:
   117                           	callstack 0
   118  00052B                     	ds	3
   119  00052E                     _UART1_TxInterruptHandler:
   120                           	callstack 0
   121  00052E                     	ds	3
   122  000531                     _UART1_RxInterruptHandler:
   123                           	callstack 0
   124  000531                     	ds	3
   125  000534                     _timer1ReloadVal:
   126                           	callstack 0
   127  000534                     	ds	2
   128  000536                     _uart1TxBufferRemaining:
   129                           	callstack 0
   130  000536                     	ds	1
   131  0000                     _PMD8	set	104
   132  0000                     _PMD7	set	103
   133  0000                     _PMD6	set	102
   134  0000                     _PMD5	set	101
   135  0000                     _PMD4	set	100
   136  0000                     _PMD3	set	99
   137  0000                     _PMD1	set	97
   138  0000                     _PMD0	set	96
   139  0000                     _ACTCON	set	172
   140  0000                     _OSCTUNE	set	176
   141  0000                     _OSCFRQ	set	177
   142  0000                     _OSCEN	set	179
   143  0000                     _OSCCON3	set	175
   144  0000                     _OSCCON1	set	173
   145  0000                     _U1RXB	set	673
   146  0000                     _U1TXB	set	675
   147  0000                     _U1ERRIRbits	set	690
   148  0000                     _U1ERRIE	set	691
   149  0000                     _U1ERRIR	set	690
   150  0000                     _U1UIR	set	689
   151  0000                     _U1FIFO	set	688
   152  0000                     _U1BRGH	set	687
   153  0000                     _U1BRGL	set	686
   154  0000                     _U1CON2	set	685
   155  0000                     _U1CON1	set	684
   156  0000                     _U1CON0	set	683
   157  0000                     _U1P3H	set	682
   158  0000                     _U1P3L	set	681
   159  0000                     _U1P2H	set	680
   160  0000                     _U1P2L	set	679
   161  0000                     _U1P1H	set	678
   162  0000                     _U1P1L	set	677
   163  0000                     _U1RXPPS	set	626
   164  0000                     _RC6PPS	set	535
   165  0000                     _RC1PPS	set	530
   166  0000                     _T1CKIPPS	set	578
   167  0000                     _RC4I2C	set	646
   168  0000                     _RC3I2C	set	647
   169  0000                     _RB2I2C	set	648
   170  0000                     _RB1I2C	set	649
   171  0000                     _T1GCONbits	set	799
   172  0000                     _T1CONbits	set	798
   173  0000                     _T1CON	set	798
   174  0000                     _TMR1L	set	796
   175  0000                     _TMR1H	set	797
   176  0000                     _T1CLK	set	801
   177  0000                     _T1GATE	set	800
   178  0000                     _T1GCON	set	799
   179  0000                     _ADCON1bits	set	1012
   180  0000                     _ADERRL	set	989
   181  0000                     _ADERRH	set	990
   182  0000                     _ADPREVL	set	1000
   183  0000                     _ADPREVH	set	1001
   184  0000                     _ADFLTRL	set	993
   185  0000                     _ADFLTRH	set	994
   186  0000                     _ADSTATbits	set	1015
   187  0000                     _ADACCL	set	995
   188  0000                     _ADACCH	set	996
   189  0000                     _ADCON2bits	set	1013
   190  0000                     _ADCNT	set	998
   191  0000                     _ADCON3bits	set	1014
   192  0000                     _ADRESL	set	1002
   193  0000                     _ADRESH	set	1003
   194  0000                     _ADCON0bits	set	1011
   195  0000                     _ADCON0	set	1011
   196  0000                     _ADCLK	set	1018
   197  0000                     _ADACT	set	1017
   198  0000                     _ADREF	set	1016
   199  0000                     _ADSTAT	set	1015
   200  0000                     _ADCON3	set	1014
   201  0000                     _ADCON2	set	1013
   202  0000                     _ADCON1	set	1012
   203  0000                     _ADPREH	set	1010
   204  0000                     _ADPREL	set	1009
   205  0000                     _ADCAP	set	1008
   206  0000                     _ADACQH	set	1007
   207  0000                     _ADACQL	set	1006
   208  0000                     _ADPCH	set	1004
   209  0000                     _ADRPT	set	999
   210  0000                     _ADACCU	set	997
   211  0000                     _ADSTPTH	set	992
   212  0000                     _ADSTPTL	set	991
   213  0000                     _ADUTHH	set	988
   214  0000                     _ADUTHL	set	987
   215  0000                     _ADLTHH	set	986
   216  0000                     _ADLTHL	set	985
   217  0000                     _NCO1CONbits	set	1094
   218  0000                     _NCO1INCL	set	1091
   219  0000                     _NCO1INCH	set	1092
   220  0000                     _NCO1INCU	set	1093
   221  0000                     _NCO1ACCL	set	1088
   222  0000                     _NCO1ACCH	set	1089
   223  0000                     _NCO1ACCU	set	1090
   224  0000                     _NCO1CLK	set	1095
   225  0000                     _NCO1CON	set	1094
   226  0000                     _INLVLE	set	1060
   227  0000                     _INLVLC	set	1044
   228  0000                     _INLVLB	set	1036
   229  0000                     _INLVLA	set	1028
   230  0000                     _SLRCONC	set	1043
   231  0000                     _SLRCONB	set	1035
   232  0000                     _SLRCONA	set	1027
   233  0000                     _ODCONC	set	1042
   234  0000                     _ODCONB	set	1034
   235  0000                     _ODCONA	set	1026
   236  0000                     _ODCONE	set	1058
   237  0000                     _WPUC	set	1041
   238  0000                     _WPUA	set	1025
   239  0000                     _WPUB	set	1033
   240  0000                     _WPUE	set	1057
   241  0000                     _ANSELA	set	1024
   242  0000                     _ANSELB	set	1032
   243  0000                     _ANSELC	set	1040
   244  0000                     _PIR3bits	set	1201
   245  0000                     _PIE3bits	set	1185
   246  0000                     _PIR1bits	set	1199
   247  0000                     _PIE1bits	set	1183
   248  0000                     _PIR4bits	set	1202
   249  0000                     _PIE4bits	set	1186
   250  0000                     _INTCON0bits	set	1238
   251  0000                     _TRISC	set	1224
   252  0000                     _TRISB	set	1223
   253  0000                     _TRISA	set	1222
   254  0000                     _LATC	set	1216
   255  0000                     _LATB	set	1215
   256  0000                     _LATA	set	1214
   257                           
   258                           ; #config settings
   259                           
   260                           	psect	cinit
   261  0005E6                     __pcinit:
   262                           	callstack 0
   263  0005E6                     start_initialization:
   264                           	callstack 0
   265  0005E6                     __initialization:
   266                           	callstack 0
   267                           
   268                           ; Initialize objects allocated to COMRAM (6 bytes)
   269                           ; load TBLPTR registers with __pidataCOMRAM
   270  0005E6  0EF8               	movlw	low __pidataCOMRAM
   271  0005E8  6EF6               	movwf	tblptrl,c
   272  0005EA  0E07               	movlw	high __pidataCOMRAM
   273  0005EC  6EF7               	movwf	tblptrh,c
   274  0005EE  0E00               	movlw	low (__pidataCOMRAM shr (0+16))
   275  0005F0  6EF8               	movwf	tblptru,c
   276  0005F2  EE01  F147         	lfsr	0,__pdataCOMRAM
   277  0005F6  EE10 F006          	lfsr	1,6
   278  0005FA                     copy_data0:
   279  0005FA  0009               	tblrd		*+
   280  0005FC  C4F5 F4EE          	movff	tablat,postinc0
   281  000600  50E5               	movf	postdec1,w,c
   282  000602  50E1               	movf	fsr1l,w,c
   283  000604  E1FA               	bnz	copy_data0
   284                           
   285                           ; Clear objects allocated to COMRAM (30 bytes)
   286  000606  EE01  F101         	lfsr	0,__pbssCOMRAM
   287  00060A  0E1E               	movlw	30
   288  00060C                     clear_0:
   289  00060C  6AEE               	clrf	postinc0,c
   290  00060E  06E8               	decf	wreg,f,c
   291  000610  E1FD               	bnz	clear_0
   292                           
   293                           ;
   294                           ; Setup IVTBASE
   295                           ;
   296  000612  0104               	movlb	4
   297  000614  0E08               	movlw	(ivt0x8_base shr 0)& (0+255)
   298  000616  6F5D               	movwf	93,b
   299  000618  0E00               	movlw	(ivt0x8_base shr (0+8))& (0+255)
   300  00061A  6F5E               	movwf	94,b
   301  00061C  0E00               	movlw	(ivt0x8_base shr (0+16))& (0+255)
   302  00061E  6F5F               	movwf	95,b
   303  000620                     end_of_initialization:
   304                           	callstack 0
   305  000620                     __end_of__initialization:
   306                           	callstack 0
   307  000620  0100               	movlb	0
   308  000622  EF0F  F000         	goto	_main	;jump to C main() function
   309                           
   310                           	psect	bssCOMRAM
   311  000501                     __pbssCOMRAM:
   312                           	callstack 0
   313  000501                     _uart1RxStatusBuffer:
   314                           	callstack 0
   315  000501                     	ds	8
   316  000509                     _uart1RxBuffer:
   317                           	callstack 0
   318  000509                     	ds	8
   319  000511                     _uart1TxBuffer:
   320                           	callstack 0
   321  000511                     	ds	8
   322  000519                     _uart1RxLastError:
   323                           	callstack 0
   324  000519                     	ds	1
   325  00051A                     _uart1RxCount:
   326                           	callstack 0
   327  00051A                     	ds	1
   328  00051B                     _uart1RxTail:
   329                           	callstack 0
   330  00051B                     	ds	1
   331  00051C                     _uart1RxHead:
   332                           	callstack 0
   333  00051C                     	ds	1
   334  00051D                     _uart1TxTail:
   335                           	callstack 0
   336  00051D                     	ds	1
   337  00051E                     _uart1TxHead:
   338                           	callstack 0
   339  00051E                     	ds	1
   340                           
   341                           	psect	dataCOMRAM
   342  000547                     __pdataCOMRAM:
   343                           	callstack 0
   344  000547                     main@F16335:
   345                           	callstack 0
   346  000547                     	ds	6
   347                           
   348                           	psect	cstackCOMRAM
   349  000537                     __pcstackCOMRAM:
   350                           	callstack 0
   351  000537                     UART1_Read@readValue:
   352                           	callstack 0
   353  000537                     UART1_Write@txData:
   354                           	callstack 0
   355  000537                     TMR1_WriteTimer@timerVal:
   356                           	callstack 0
   357  000537                     ADCC_SetADIInterruptHandler@InterruptHandler:
   358                           	callstack 0
   359  000537                     TMR1_SetInterruptHandler@InterruptHandler:
   360                           	callstack 0
   361  000537                     UART1_SetFramingErrorHandler@interruptHandler:
   362                           	callstack 0
   363  000537                     UART1_SetOverrunErrorHandler@interruptHandler:
   364                           	callstack 0
   365  000537                     UART1_SetErrorHandler@interruptHandler:
   366                           	callstack 0
   367  000537                     UART1_SetRxInterruptHandler@InterruptHandler:
   368                           	callstack 0
   369  000537                     UART1_SetTxInterruptHandler@InterruptHandler:
   370                           	callstack 0
   371                           
   372                           ; 3 bytes @ 0x0
   373  000537                     	ds	2
   374  000539                     
   375                           ; 1 bytes @ 0x2
   376  000539                     	ds	1
   377  00053A                     ??_TMR1_Initialize:
   378  00053A                     
   379                           ; 1 bytes @ 0x3
   380  00053A                     	ds	2
   381  00053C                     ??_main:
   382                           
   383                           ; 1 bytes @ 0x5
   384  00053C                     	ds	2
   385  00053E                     main@hello:
   386                           	callstack 0
   387                           
   388                           ; 6 bytes @ 0x7
   389  00053E                     	ds	6
   390  000544                     main@tmp:
   391                           	callstack 0
   392                           
   393                           ; 1 bytes @ 0xD
   394  000544                     	ds	1
   395  000545                     main@i:
   396                           	callstack 0
   397                           
   398                           ; 2 bytes @ 0xE
   399  000545                     	ds	2
   400                           
   401 ;;
   402 ;;Main: autosize = 0, tempsize = 2, incstack = 0, save=0
   403 ;;
   404 ;; *************** function _main *****************
   405 ;; Defined at:
   406 ;;		line 5 in file "main.c"
   407 ;; Parameters:    Size  Location     Type
   408 ;;		None
   409 ;; Auto vars:     Size  Location     Type
   410 ;;  tmrLoadVal      2    0        unsigned short 
   411 ;;  pulseAmount     2    0        unsigned short 
   412 ;;  i               2   14[COMRAM] int 
   413 ;;  hello           6    7[COMRAM] unsigned char [6]
   414 ;;  tmp             1   13[COMRAM] unsigned char 
   415 ;; Return value:  Size  Location     Type
   416 ;;                  1    wreg      void 
   417 ;; Registers used:
   418 ;;		wreg, fsr1l, fsr1h, fsr2l, fsr2h, status,2, status,0, cstack
   419 ;; Tracked objects:
   420 ;;		On entry : 0/0
   421 ;;		On exit  : 0/0
   422 ;;		Unchanged: 0/0
   423 ;; Data sizes:     COMRAM   BANK5   BANK6   BANK7   BANK8   BANK9  BANK10  BANK11  BANK12  BANK13  BANK14  BANK15  BANK1
      +6  BANK17  BANK18  BANK19  BANK20  BANK21  BANK22  BANK23  BANK24  BANK25  BANK26  BANK27  BANK28  BANK29  BANK30  BANK3
      +1  BANK32  BANK33  BANK34  BANK35  BANK36  BANK37
   424 ;;      Params:         0       0       0       0       0       0       0       0       0       0       0       0       
      +0       0       0       0       0       0       0       0       0       0       0       0       0       0       0       
      +0       0       0       0       0       0       0
   425 ;;      Locals:         9       0       0       0       0       0       0       0       0       0       0       0       
      +0       0       0       0       0       0       0       0       0       0       0       0       0       0       0       
      +0       0       0       0       0       0       0
   426 ;;      Temps:          2       0       0       0       0       0       0       0       0       0       0       0       
      +0       0       0       0       0       0       0       0       0       0       0       0       0       0       0       
      +0       0       0       0       0       0       0
   427 ;;      Totals:        11       0       0       0       0       0       0       0       0       0       0       0       
      +0       0       0       0       0       0       0       0       0       0       0       0       0       0       0       
      +0       0       0       0       0       0       0
   428 ;;Total ram usage:       11 bytes
   429 ;; Hardware stack levels required when called: 7
   430 ;; This function calls:
   431 ;;		_SYSTEM_Initialize
   432 ;;		_TMR1_StartTimer
   433 ;;		_TMR1_StopTimer
   434 ;;		_TMR1_WriteTimer
   435 ;;		_UART1_Read
   436 ;;		_UART1_Write
   437 ;;		_UART1_is_rx_ready
   438 ;;		_UART1_is_tx_ready
   439 ;; This function is called by:
   440 ;;		Startup code after reset
   441 ;; This function uses a non-reentrant model
   442 ;;
   443                           
   444                           	psect	text0
   445  00001E                     __ptext0:
   446                           	callstack 0
   447  00001E                     _main:
   448                           	callstack 121
   449  00001E                     
   450                           ;main.c: 8:     SYSTEM_Initialize();
   451  00001E  EC96  F003         	call	_SYSTEM_Initialize	;wreg free
   452  000022                     
   453                           ;main.c: 15:     (INTCON0bits.GIE = 1);
   454  000022  8ED6               	bsf	214,7,c	;volatile
   455  000024                     
   456                           ;main.c: 21:     uint8_t tmp;;main.c: 22:     uint8_t hello[] = "hello";
   457  000024  EE21  F147         	lfsr	2,main@F16335
   458  000028  EE11  F13E         	lfsr	1,main@hello
   459  00002C  0E05               	movlw	5
   460  00002E                     u421:
   461  00002E  C4DB F4E3          	movff	plusw2,plusw1
   462  000032  06E8               	decf	wreg,f,c
   463  000034  E2FC               	bc	u421
   464  000036                     
   465                           ;main.c: 24:     for(int i=0;i<6;i++){
   466  000036  0E00               	movlw	0
   467  000038  6E46               	movwf	(main@i+1)^(0+1280),c
   468  00003A  0E00               	movlw	0
   469  00003C  6E45               	movwf	main@i^(0+1280),c
   470  00003E                     l1929:
   471  00003E  ECB5  F003         	call	_UART1_is_tx_ready	;wreg free
   472  000042  0900               	iorlw	0
   473  000044  B4D8               	btfsc	status,2,c
   474  000046  EF27  F000         	goto	u431
   475  00004A  EF29  F000         	goto	u430
   476  00004E                     u431:
   477  00004E  EF1F  F000         	goto	l1929
   478  000052                     u430:
   479  000052                     
   480                           ;main.c: 26:         UART1_Write(hello[i]);
   481  000052  0E3E               	movlw	low main@hello
   482  000054  2445               	addwf	main@i^(0+1280),w,c
   483  000056  6ED9               	movwf	fsr2l,c
   484  000058  0E05               	movlw	high main@hello
   485  00005A  2046               	addwfc	(main@i+1)^(0+1280),w,c
   486  00005C  6EDA               	movwf	fsr2h,c
   487  00005E  50DF               	movf	indf2,w,c
   488  000060  EC58  F002         	call	_UART1_Write
   489  000064                     
   490                           ;main.c: 27:     }
   491  000064  4A45               	infsnz	main@i^(0+1280),f,c
   492  000066  2A46               	incf	(main@i+1)^(0+1280),f,c
   493  000068  BE46               	btfsc	(main@i+1)^(0+1280),7,c
   494  00006A  EF40  F000         	goto	u441
   495  00006E  5046               	movf	(main@i+1)^(0+1280),w,c
   496  000070  E109               	bnz	u440
   497  000072  0E06               	movlw	6
   498  000074  5C45               	subwf	main@i^(0+1280),w,c
   499  000076  A0D8               	btfss	status,0,c
   500  000078  EF40  F000         	goto	u441
   501  00007C  EF42  F000         	goto	u440
   502  000080                     u441:
   503  000080  EF1F  F000         	goto	l1929
   504  000084                     u440:
   505  000084  EF44  F000         	goto	l1937
   506  000088                     l641:
   507  000088                     l1937:
   508                           
   509                           ;main.c: 30:     {;main.c: 31:         if(UART1_is_rx_ready()){
   510  000088  ECC0  F003         	call	_UART1_is_rx_ready	;wreg free
   511  00008C  0900               	iorlw	0
   512  00008E  B4D8               	btfsc	status,2,c
   513  000090  EF4C  F000         	goto	u451
   514  000094  EF4E  F000         	goto	u450
   515  000098                     u451:
   516  000098  EFB8  F000         	goto	l1971
   517  00009C                     u450:
   518  00009C                     
   519                           ;main.c: 32:             tmp = UART1_Read();
   520  00009C  EC85  F002         	call	_UART1_Read	;wreg free
   521  0000A0  6E44               	movwf	main@tmp^(0+1280),c
   522                           
   523                           ;main.c: 33:             switch(tmp)
   524  0000A2  EF97  F000         	goto	l1969
   525  0000A6                     l1941:
   526                           
   527                           ;main.c: 36:                 {;main.c: 38:                     NCO1CONbits.EN = ~NCO1CON
      +                          bits.EN;
   528  0000A6  0104               	movlb	4	; () banked
   529  0000A8  BF46               	btfsc	70,7,b	;volatile
   530  0000AA  EF59  F000         	goto	u461
   531  0000AE  EF5C  F000         	goto	u460
   532  0000B2                     u461:
   533  0000B2  0E01               	movlw	1
   534  0000B4  EF5D  F000         	goto	u466
   535  0000B8                     u460:
   536  0000B8  0E00               	movlw	0
   537  0000BA                     u466:
   538  0000BA  0AFF               	xorlw	255
   539  0000BC  6E3C               	movwf	??_main^(0+1280),c
   540  0000BE  323C               	rrcf	??_main^(0+1280),f,c
   541  0000C0  323C               	rrcf	??_main^(0+1280),f,c
   542  0000C2  5146               	movf	70,w,b	;volatile
   543  0000C4  183C               	xorwf	??_main^(0+1280),w,c
   544  0000C6  0B7F               	andlw	-129
   545  0000C8  183C               	xorwf	??_main^(0+1280),w,c
   546  0000CA  6F46               	movwf	70,b	;volatile
   547                           
   548                           ;main.c: 39:                     break;
   549  0000CC  EF44  F000         	goto	l1937
   550  0000D0                     l1943:
   551                           
   552                           ;main.c: 45:                 {;main.c: 46:                     TMR1_StopTimer();
   553  0000D0  ECFF  F003         	call	_TMR1_StopTimer	;wreg free
   554  0000D4                     
   555                           ;main.c: 47:                     NCO1CONbits.EN = 0;
   556  0000D4  0104               	movlb	4	; () banked
   557  0000D6  9F46               	bcf	70,7,b	;volatile
   558  0000D8                     
   559                           ; BSR set to: 4
   560                           ;main.c: 50:                     TMR1_WriteTimer(tmrLoadVal);
   561  0000D8  0EFF               	movlw	255
   562  0000DA  6E38               	movwf	(TMR1_WriteTimer@timerVal+1)^(0+1280),c
   563  0000DC  0E70               	movlw	112
   564  0000DE  6E37               	movwf	TMR1_WriteTimer@timerVal^(0+1280),c
   565  0000E0  EC45  F003         	call	_TMR1_WriteTimer	;wreg free
   566                           
   567                           ;main.c: 51:                     break;
   568  0000E4  EF44  F000         	goto	l1937
   569  0000E8                     l1953:
   570                           
   571                           ;main.c: 54:                 {;main.c: 56:                     TMR1_StartTimer();
   572  0000E8  EC02  F004         	call	_TMR1_StartTimer	;wreg free
   573  0000EC                     
   574                           ;main.c: 57:                     NCO1CONbits.EN = 1;
   575  0000EC  0104               	movlb	4	; () banked
   576  0000EE  8F46               	bsf	70,7,b	;volatile
   577                           
   578                           ;main.c: 58:                     break;
   579  0000F0  EF44  F000         	goto	l1937
   580  0000F4                     l653:
   581                           
   582                           ;main.c: 61:                 {;main.c: 62:                     NCO1CONbits.EN = 0;
   583  0000F4  0104               	movlb	4	; () banked
   584  0000F6  9F46               	bcf	70,7,b	;volatile
   585  0000F8                     
   586                           ; BSR set to: 4
   587                           ;main.c: 63:                     TMR1_StopTimer();
   588  0000F8  ECFF  F003         	call	_TMR1_StopTimer	;wreg free
   589  0000FC                     
   590                           ;main.c: 64:                     UART1_Write(TMR1H);
   591  0000FC  0103               	movlb	3	; () banked
   592  0000FE  511D               	movf	29,w,b	;volatile
   593  000100  EC58  F002         	call	_UART1_Write
   594  000104                     
   595                           ;main.c: 65:                     UART1_Write(TMR1L);
   596  000104  0103               	movlb	3	; () banked
   597  000106  511C               	movf	28,w,b	;volatile
   598  000108  EC58  F002         	call	_UART1_Write
   599                           
   600                           ;main.c: 66:                     break;
   601  00010C  EF44  F000         	goto	l1937
   602  000110                     l1963:
   603                           
   604                           ;main.c: 69:                 {;main.c: 70:                     if(UART1_is_tx_ready())UA
      +                          RT1_Write(tmp);
   605  000110  ECB5  F003         	call	_UART1_is_tx_ready	;wreg free
   606  000114  0900               	iorlw	0
   607  000116  B4D8               	btfsc	status,2,c
   608  000118  EF90  F000         	goto	u471
   609  00011C  EF92  F000         	goto	u470
   610  000120                     u471:
   611  000120  EF44  F000         	goto	l641
   612  000124                     u470:
   613  000124  5044               	movf	main@tmp^(0+1280),w,c
   614  000126  EC58  F002         	call	_UART1_Write
   615  00012A  EF44  F000         	goto	l1937
   616  00012E                     l1969:
   617  00012E  5044               	movf	main@tmp^(0+1280),w,c
   618  000130  6E3C               	movwf	??_main^(0+1280),c
   619  000132  6A3D               	clrf	(??_main+1)^(0+1280),c
   620                           
   621                           ; Switch on 2 bytes has been partitioned into a top level switch of size 1, and 1 sub-sw
      +                          itches
   622                           ; Switch size 1, requested type "simple"
   623                           ; Number of cases is 1, Range of values is 0 to 0
   624                           ; switch strategies available:
   625                           ; Name         Instructions Cycles
   626                           ; simple_byte            4     3 (average)
   627                           ;	Chosen strategy is simple_byte
   628  000134  503D               	movf	(??_main+1)^(0+1280),w,c
   629  000136  0A00               	xorlw	0	; case 0
   630  000138  B4D8               	btfsc	status,2,c
   631  00013A  EFA1  F000         	goto	l1999
   632  00013E  EF88  F000         	goto	l1963
   633  000142                     l1999:
   634                           
   635                           ; Switch size 1, requested type "simple"
   636                           ; Number of cases is 5, Range of values is 98 to 116
   637                           ; switch strategies available:
   638                           ; Name         Instructions Cycles
   639                           ; simple_byte           16     9 (average)
   640                           ;	Chosen strategy is simple_byte
   641  000142  503C               	movf	??_main^(0+1280),w,c
   642  000144  0A62               	xorlw	98	; case 98
   643  000146  B4D8               	btfsc	status,2,c
   644  000148  EF68  F000         	goto	l1943
   645  00014C  0A0E               	xorlw	14	; case 108
   646  00014E  B4D8               	btfsc	status,2,c
   647  000150  EF68  F000         	goto	l1943
   648  000154  0A1E               	xorlw	30	; case 114
   649  000156  B4D8               	btfsc	status,2,c
   650  000158  EF7A  F000         	goto	l653
   651  00015C  0A01               	xorlw	1	; case 115
   652  00015E  B4D8               	btfsc	status,2,c
   653  000160  EF74  F000         	goto	l1953
   654  000164  0A07               	xorlw	7	; case 116
   655  000166  B4D8               	btfsc	status,2,c
   656  000168  EF53  F000         	goto	l1941
   657  00016C  EF88  F000         	goto	l1963
   658  000170                     l1971:
   659                           
   660                           ;main.c: 75:             UART1_Write(TMR1H);
   661  000170  0103               	movlb	3	; () banked
   662  000172  511D               	movf	29,w,b	;volatile
   663  000174  EC58  F002         	call	_UART1_Write
   664  000178                     
   665                           ;main.c: 76:             _delay((unsigned long)((100)*(64000000/4000.0)));
   666  000178  0E09               	movlw	9
   667  00017A  6E3D               	movwf	(??_main+1)^(0+1280),c
   668  00017C  0E1E               	movlw	30
   669  00017E  6E3C               	movwf	??_main^(0+1280),c
   670  000180  0EE4               	movlw	228
   671  000182                     u487:
   672  000182  2EE8               	decfsz	wreg,f,c
   673  000184  D7FE               	bra	u487
   674  000186  2E3C               	decfsz	??_main^(0+1280),f,c
   675  000188  D7FC               	bra	u487
   676  00018A  2E3D               	decfsz	(??_main+1)^(0+1280),f,c
   677  00018C  D7FA               	bra	u487
   678  00018E  D000               	nop2	
   679  000190  EF44  F000         	goto	l1937
   680  000194  EF0D  F000         	goto	start
   681  000198                     __end_of_main:
   682                           	callstack 0
   683                           
   684 ;; *************** function _UART1_is_tx_ready *****************
   685 ;; Defined at:
   686 ;;		line 165 in file "mcc_generated_files/uart1.c"
   687 ;; Parameters:    Size  Location     Type
   688 ;;		None
   689 ;; Auto vars:     Size  Location     Type
   690 ;;		None
   691 ;; Return value:  Size  Location     Type
   692 ;;                  1    wreg      _Bool 
   693 ;; Registers used:
   694 ;;		wreg, status,2
   695 ;; Tracked objects:
   696 ;;		On entry : 0/0
   697 ;;		On exit  : 0/0
   698 ;;		Unchanged: 0/0
   699 ;; Data sizes:     COMRAM   BANK5   BANK6   BANK7   BANK8   BANK9  BANK10  BANK11  BANK12  BANK13  BANK14  BANK15  BANK1
      +6  BANK17  BANK18  BANK19  BANK20  BANK21  BANK22  BANK23  BANK24  BANK25  BANK26  BANK27  BANK28  BANK29  BANK30  BANK3
      +1  BANK32  BANK33  BANK34  BANK35  BANK36  BANK37
   700 ;;      Params:         0       0       0       0       0       0       0       0       0       0       0       0       
      +0       0       0       0       0       0       0       0       0       0       0       0       0       0       0       
      +0       0       0       0       0       0       0
   701 ;;      Locals:         0       0       0       0       0       0       0       0       0       0       0       0       
      +0       0       0       0       0       0       0       0       0       0       0       0       0       0       0       
      +0       0       0       0       0       0       0
   702 ;;      Temps:          0       0       0       0       0       0       0       0       0       0       0       0       
      +0       0       0       0       0       0       0       0       0       0       0       0       0       0       0       
      +0       0       0       0       0       0       0
   703 ;;      Totals:         0       0       0       0       0       0       0       0       0       0       0       0       
      +0       0       0       0       0       0       0       0       0       0       0       0       0       0       0       
      +0       0       0       0       0       0       0
   704 ;;Total ram usage:        0 bytes
   705 ;; Hardware stack levels used: 1
   706 ;; Hardware stack levels required when called: 4
   707 ;; This function calls:
   708 ;;		Nothing
   709 ;; This function is called by:
   710 ;;		_main
   711 ;; This function uses a non-reentrant model
   712 ;;
   713                           
   714                           	psect	text1
   715  00076A                     __ptext1:
   716                           	callstack 0
   717  00076A                     _UART1_is_tx_ready:
   718                           	callstack 123
   719  00076A                     
   720                           ;mcc_generated_files/uart1.c: 167:     return (uart1TxBufferRemaining ? 1 : 0);
   721  00076A  5036               	movf	_uart1TxBufferRemaining^(0+1280),w,c	;volatile
   722  00076C  A4D8               	btfss	status,2,c
   723  00076E  EFBB  F003         	goto	u91
   724  000772  EFBE  F003         	goto	u90
   725  000776                     u91:
   726  000776  0E01               	movlw	1
   727  000778  EFBF  F003         	goto	u100
   728  00077C                     u90:
   729  00077C  0E00               	movlw	0
   730  00077E                     u100:
   731  00077E  0012               	return		;funcret
   732  000780                     __end_of_UART1_is_tx_ready:
   733                           	callstack 0
   734                           
   735 ;; *************** function _UART1_is_rx_ready *****************
   736 ;; Defined at:
   737 ;;		line 160 in file "mcc_generated_files/uart1.c"
   738 ;; Parameters:    Size  Location     Type
   739 ;;		None
   740 ;; Auto vars:     Size  Location     Type
   741 ;;		None
   742 ;; Return value:  Size  Location     Type
   743 ;;                  1    wreg      _Bool 
   744 ;; Registers used:
   745 ;;		wreg, status,2
   746 ;; Tracked objects:
   747 ;;		On entry : 0/0
   748 ;;		On exit  : 0/0
   749 ;;		Unchanged: 0/0
   750 ;; Data sizes:     COMRAM   BANK5   BANK6   BANK7   BANK8   BANK9  BANK10  BANK11  BANK12  BANK13  BANK14  BANK15  BANK1
      +6  BANK17  BANK18  BANK19  BANK20  BANK21  BANK22  BANK23  BANK24  BANK25  BANK26  BANK27  BANK28  BANK29  BANK30  BANK3
      +1  BANK32  BANK33  BANK34  BANK35  BANK36  BANK37
   751 ;;      Params:         0       0       0       0       0       0       0       0       0       0       0       0       
      +0       0       0       0       0       0       0       0       0       0       0       0       0       0       0       
      +0       0       0       0       0       0       0
   752 ;;      Locals:         0       0       0       0       0       0       0       0       0       0       0       0       
      +0       0       0       0       0       0       0       0       0       0       0       0       0       0       0       
      +0       0       0       0       0       0       0
   753 ;;      Temps:          0       0       0       0       0       0       0       0       0       0       0       0       
      +0       0       0       0       0       0       0       0       0       0       0       0       0       0       0       
      +0       0       0       0       0       0       0
   754 ;;      Totals:         0       0       0       0       0       0       0       0       0       0       0       0       
      +0       0       0       0       0       0       0       0       0       0       0       0       0       0       0       
      +0       0       0       0       0       0       0
   755 ;;Total ram usage:        0 bytes
   756 ;; Hardware stack levels used: 1
   757 ;; Hardware stack levels required when called: 4
   758 ;; This function calls:
   759 ;;		Nothing
   760 ;; This function is called by:
   761 ;;		_main
   762 ;; This function uses a non-reentrant model
   763 ;;
   764                           
   765                           	psect	text2
   766  000780                     __ptext2:
   767                           	callstack 0
   768  000780                     _UART1_is_rx_ready:
   769                           	callstack 123
   770  000780                     
   771                           ;mcc_generated_files/uart1.c: 162:     return (uart1RxCount ? 1 : 0);
   772  000780  501A               	movf	_uart1RxCount^(0+1280),w,c	;volatile
   773  000782  A4D8               	btfss	status,2,c
   774  000784  EFC6  F003         	goto	u71
   775  000788  EFC9  F003         	goto	u70
   776  00078C                     u71:
   777  00078C  0E01               	movlw	1
   778  00078E  EFCA  F003         	goto	u80
   779  000792                     u70:
   780  000792  0E00               	movlw	0
   781  000794                     u80:
   782  000794  0012               	return		;funcret
   783  000796                     __end_of_UART1_is_rx_ready:
   784                           	callstack 0
   785                           
   786 ;; *************** function _UART1_Write *****************
   787 ;; Defined at:
   788 ;;		line 201 in file "mcc_generated_files/uart1.c"
   789 ;; Parameters:    Size  Location     Type
   790 ;;  txData          1    wreg     unsigned char 
   791 ;; Auto vars:     Size  Location     Type
   792 ;;  txData          1    0[COMRAM] unsigned char 
   793 ;; Return value:  Size  Location     Type
   794 ;;                  1    wreg      void 
   795 ;; Registers used:
   796 ;;		wreg, fsr2l, fsr2h, status,2, status,0
   797 ;; Tracked objects:
   798 ;;		On entry : 0/0
   799 ;;		On exit  : 0/0
   800 ;;		Unchanged: 0/0
   801 ;; Data sizes:     COMRAM   BANK5   BANK6   BANK7   BANK8   BANK9  BANK10  BANK11  BANK12  BANK13  BANK14  BANK15  BANK1
      +6  BANK17  BANK18  BANK19  BANK20  BANK21  BANK22  BANK23  BANK24  BANK25  BANK26  BANK27  BANK28  BANK29  BANK30  BANK3
      +1  BANK32  BANK33  BANK34  BANK35  BANK36  BANK37
   802 ;;      Params:         0       0       0       0       0       0       0       0       0       0       0       0       
      +0       0       0       0       0       0       0       0       0       0       0       0       0       0       0       
      +0       0       0       0       0       0       0
   803 ;;      Locals:         1       0       0       0       0       0       0       0       0       0       0       0       
      +0       0       0       0       0       0       0       0       0       0       0       0       0       0       0       
      +0       0       0       0       0       0       0
   804 ;;      Temps:          0       0       0       0       0       0       0       0       0       0       0       0       
      +0       0       0       0       0       0       0       0       0       0       0       0       0       0       0       
      +0       0       0       0       0       0       0
   805 ;;      Totals:         1       0       0       0       0       0       0       0       0       0       0       0       
      +0       0       0       0       0       0       0       0       0       0       0       0       0       0       0       
      +0       0       0       0       0       0       0
   806 ;;Total ram usage:        1 bytes
   807 ;; Hardware stack levels used: 1
   808 ;; Hardware stack levels required when called: 4
   809 ;; This function calls:
   810 ;;		Nothing
   811 ;; This function is called by:
   812 ;;		_main
   813 ;;		_putch
   814 ;; This function uses a non-reentrant model
   815 ;;
   816                           
   817                           	psect	text3
   818  0004B0                     __ptext3:
   819                           	callstack 0
   820  0004B0                     _UART1_Write:
   821                           	callstack 123
   822                           
   823                           ;incstack = 0
   824                           ;UART1_Write@txData stored from wreg
   825  0004B0  6E37               	movwf	UART1_Write@txData^(0+1280),c
   826  0004B2                     l1535:
   827                           
   828                           ;mcc_generated_files/uart1.c: 203:     while(0 == uart1TxBufferRemaining)
   829  0004B2  5036               	movf	_uart1TxBufferRemaining^(0+1280),w,c	;volatile
   830  0004B4  B4D8               	btfsc	status,2,c
   831  0004B6  EF5F  F002         	goto	u131
   832  0004BA  EF61  F002         	goto	u130
   833  0004BE                     u131:
   834  0004BE  EF59  F002         	goto	l1535
   835  0004C2                     u130:
   836  0004C2                     
   837                           ;mcc_generated_files/uart1.c: 207:     if(0 == PIE4bits.U1TXIE)
   838  0004C2  B2A2               	btfsc	162,1,c	;volatile
   839  0004C4  EF66  F002         	goto	u141
   840  0004C8  EF68  F002         	goto	u140
   841  0004CC                     u141:
   842  0004CC  EF6D  F002         	goto	l553
   843  0004D0                     u140:
   844  0004D0                     
   845                           ;mcc_generated_files/uart1.c: 208:     {;mcc_generated_files/uart1.c: 209:         U1TXB
      +                           = txData;
   846  0004D0  0061  F4DC  F2A3   	movff	UART1_Write@txData,675	;volatile
   847                           
   848                           ;mcc_generated_files/uart1.c: 210:     }
   849  0004D6  EF83  F002         	goto	l1549
   850  0004DA                     l553:
   851                           
   852                           ;mcc_generated_files/uart1.c: 212:     {;mcc_generated_files/uart1.c: 213:         PIE4b
      +                          its.U1TXIE = 0;
   853  0004DA  92A2               	bcf	162,1,c	;volatile
   854  0004DC                     
   855                           ;mcc_generated_files/uart1.c: 214:         uart1TxBuffer[uart1TxHead++] = txData;
   856  0004DC  0E11               	movlw	low _uart1TxBuffer
   857  0004DE  241E               	addwf	_uart1TxHead^(0+1280),w,c	;volatile
   858  0004E0  6ED9               	movwf	fsr2l,c
   859  0004E2  6ADA               	clrf	fsr2h,c
   860  0004E4  0E05               	movlw	high _uart1TxBuffer
   861  0004E6  22DA               	addwfc	fsr2h,f,c
   862  0004E8  0061  F4DC  F4DF   	movff	UART1_Write@txData,indf2
   863  0004EE  2A1E               	incf	_uart1TxHead^(0+1280),f,c	;volatile
   864  0004F0                     
   865                           ;mcc_generated_files/uart1.c: 215:         if(sizeof(uart1TxBuffer) <= uart1TxHead)
   866  0004F0  0E07               	movlw	7
   867  0004F2  641E               	cpfsgt	_uart1TxHead^(0+1280),c	;volatile
   868  0004F4  EF7E  F002         	goto	u151
   869  0004F8  EF80  F002         	goto	u150
   870  0004FC                     u151:
   871  0004FC  EF82  F002         	goto	l1547
   872  000500                     u150:
   873  000500                     
   874                           ;mcc_generated_files/uart1.c: 216:         {;mcc_generated_files/uart1.c: 217:          
      +                             uart1TxHead = 0;
   875  000500  0E00               	movlw	0
   876  000502  6E1E               	movwf	_uart1TxHead^(0+1280),c	;volatile
   877  000504                     l1547:
   878                           
   879                           ;mcc_generated_files/uart1.c: 219:         uart1TxBufferRemaining--;
   880  000504  0636               	decf	_uart1TxBufferRemaining^(0+1280),f,c	;volatile
   881  000506                     l1549:
   882                           
   883                           ;mcc_generated_files/uart1.c: 221:     PIE4bits.U1TXIE = 1;
   884  000506  82A2               	bsf	162,1,c	;volatile
   885  000508  0012               	return		;funcret
   886  00050A                     __end_of_UART1_Write:
   887                           	callstack 0
   888                           
   889 ;; *************** function _UART1_Read *****************
   890 ;; Defined at:
   891 ;;		line 179 in file "mcc_generated_files/uart1.c"
   892 ;; Parameters:    Size  Location     Type
   893 ;;		None
   894 ;; Auto vars:     Size  Location     Type
   895 ;;  readValue       1    0[COMRAM] unsigned char 
   896 ;; Return value:  Size  Location     Type
   897 ;;                  1    wreg      unsigned char 
   898 ;; Registers used:
   899 ;;		wreg, fsr2l, fsr2h, status,2, status,0
   900 ;; Tracked objects:
   901 ;;		On entry : 0/0
   902 ;;		On exit  : 0/0
   903 ;;		Unchanged: 0/0
   904 ;; Data sizes:     COMRAM   BANK5   BANK6   BANK7   BANK8   BANK9  BANK10  BANK11  BANK12  BANK13  BANK14  BANK15  BANK1
      +6  BANK17  BANK18  BANK19  BANK20  BANK21  BANK22  BANK23  BANK24  BANK25  BANK26  BANK27  BANK28  BANK29  BANK30  BANK3
      +1  BANK32  BANK33  BANK34  BANK35  BANK36  BANK37
   905 ;;      Params:         0       0       0       0       0       0       0       0       0       0       0       0       
      +0       0       0       0       0       0       0       0       0       0       0       0       0       0       0       
      +0       0       0       0       0       0       0
   906 ;;      Locals:         1       0       0       0       0       0       0       0       0       0       0       0       
      +0       0       0       0       0       0       0       0       0       0       0       0       0       0       0       
      +0       0       0       0       0       0       0
   907 ;;      Temps:          0       0       0       0       0       0       0       0       0       0       0       0       
      +0       0       0       0       0       0       0       0       0       0       0       0       0       0       0       
      +0       0       0       0       0       0       0
   908 ;;      Totals:         1       0       0       0       0       0       0       0       0       0       0       0       
      +0       0       0       0       0       0       0       0       0       0       0       0       0       0       0       
      +0       0       0       0       0       0       0
   909 ;;Total ram usage:        1 bytes
   910 ;; Hardware stack levels used: 1
   911 ;; Hardware stack levels required when called: 4
   912 ;; This function calls:
   913 ;;		Nothing
   914 ;; This function is called by:
   915 ;;		_main
   916 ;;		_getch
   917 ;; This function uses a non-reentrant model
   918 ;;
   919                           
   920                           	psect	text4
   921  00050A                     __ptext4:
   922                           	callstack 0
   923  00050A                     _UART1_Read:
   924                           	callstack 123
   925  00050A                     l1513:
   926                           
   927                           ;mcc_generated_files/uart1.c: 183:     while(0 == uart1RxCount)
   928  00050A  501A               	movf	_uart1RxCount^(0+1280),w,c	;volatile
   929  00050C  B4D8               	btfsc	status,2,c
   930  00050E  EF8B  F002         	goto	u111
   931  000512  EF8D  F002         	goto	u110
   932  000516                     u111:
   933  000516  EF85  F002         	goto	l1513
   934  00051A                     u110:
   935  00051A                     
   936                           ;mcc_generated_files/uart1.c: 187:     uart1RxLastError = uart1RxStatusBuffer[uart1RxTai
      +                          l];
   937  00051A  0E01               	movlw	low _uart1RxStatusBuffer
   938  00051C  241B               	addwf	_uart1RxTail^(0+1280),w,c	;volatile
   939  00051E  6ED9               	movwf	fsr2l,c
   940  000520  6ADA               	clrf	fsr2h,c
   941  000522  0E05               	movlw	high _uart1RxStatusBuffer
   942  000524  22DA               	addwfc	fsr2h,f,c
   943  000526  50DF               	movf	indf2,w,c
   944  000528  6E19               	movwf	_uart1RxLastError^(0+1280),c	;volatile
   945                           
   946                           ;mcc_generated_files/uart1.c: 189:     readValue = uart1RxBuffer[uart1RxTail++];
   947  00052A  0E09               	movlw	low _uart1RxBuffer
   948  00052C  241B               	addwf	_uart1RxTail^(0+1280),w,c	;volatile
   949  00052E  6ED9               	movwf	fsr2l,c
   950  000530  6ADA               	clrf	fsr2h,c
   951  000532  0E05               	movlw	high _uart1RxBuffer
   952  000534  22DA               	addwfc	fsr2h,f,c
   953  000536  50DF               	movf	indf2,w,c
   954  000538  6E37               	movwf	UART1_Read@readValue^(0+1280),c
   955  00053A  2A1B               	incf	_uart1RxTail^(0+1280),f,c	;volatile
   956  00053C                     
   957                           ;mcc_generated_files/uart1.c: 190:     if(sizeof(uart1RxBuffer) <= uart1RxTail)
   958  00053C  0E07               	movlw	7
   959  00053E  641B               	cpfsgt	_uart1RxTail^(0+1280),c	;volatile
   960  000540  EFA4  F002         	goto	u121
   961  000544  EFA6  F002         	goto	u120
   962  000548                     u121:
   963  000548  EFA8  F002         	goto	l1523
   964  00054C                     u120:
   965  00054C                     
   966                           ;mcc_generated_files/uart1.c: 191:     {;mcc_generated_files/uart1.c: 192:         uart1
      +                          RxTail = 0;
   967  00054C  0E00               	movlw	0
   968  00054E  6E1B               	movwf	_uart1RxTail^(0+1280),c	;volatile
   969  000550                     l1523:
   970                           
   971                           ;mcc_generated_files/uart1.c: 194:     PIE4bits.U1RXIE = 0;
   972  000550  90A2               	bcf	162,0,c	;volatile
   973  000552                     
   974                           ;mcc_generated_files/uart1.c: 195:     uart1RxCount--;
   975  000552  061A               	decf	_uart1RxCount^(0+1280),f,c	;volatile
   976  000554                     
   977                           ;mcc_generated_files/uart1.c: 196:     PIE4bits.U1RXIE = 1;
   978  000554  80A2               	bsf	162,0,c	;volatile
   979  000556                     
   980                           ;mcc_generated_files/uart1.c: 198:     return readValue;
   981  000556  5037               	movf	UART1_Read@readValue^(0+1280),w,c
   982  000558  0012               	return		;funcret
   983  00055A                     __end_of_UART1_Read:
   984                           	callstack 0
   985                           
   986 ;; *************** function _TMR1_WriteTimer *****************
   987 ;; Defined at:
   988 ;;		line 127 in file "mcc_generated_files/tmr1.c"
   989 ;; Parameters:    Size  Location     Type
   990 ;;  timerVal        2    0[COMRAM] unsigned short 
   991 ;; Auto vars:     Size  Location     Type
   992 ;;		None
   993 ;; Return value:  Size  Location     Type
   994 ;;                  1    wreg      void 
   995 ;; Registers used:
   996 ;;		wreg, status,2
   997 ;; Tracked objects:
   998 ;;		On entry : 0/0
   999 ;;		On exit  : 0/0
  1000 ;;		Unchanged: 0/0
  1001 ;; Data sizes:     COMRAM   BANK5   BANK6   BANK7   BANK8   BANK9  BANK10  BANK11  BANK12  BANK13  BANK14  BANK15  BANK1
      +6  BANK17  BANK18  BANK19  BANK20  BANK21  BANK22  BANK23  BANK24  BANK25  BANK26  BANK27  BANK28  BANK29  BANK30  BANK3
      +1  BANK32  BANK33  BANK34  BANK35  BANK36  BANK37
  1002 ;;      Params:         2       0       0       0       0       0       0       0       0       0       0       0       
      +0       0       0       0       0       0       0       0       0       0       0       0       0       0       0       
      +0       0       0       0       0       0       0
  1003 ;;      Locals:         0       0       0       0       0       0       0       0       0       0       0       0       
      +0       0       0       0       0       0       0       0       0       0       0       0       0       0       0       
      +0       0       0       0       0       0       0
  1004 ;;      Temps:          0       0       0       0       0       0       0       0       0       0       0       0       
      +0       0       0       0       0       0       0       0       0       0       0       0       0       0       0       
      +0       0       0       0       0       0       0
  1005 ;;      Totals:         2       0       0       0       0       0       0       0       0       0       0       0       
      +0       0       0       0       0       0       0       0       0       0       0       0       0       0       0       
      +0       0       0       0       0       0       0
  1006 ;;Total ram usage:        2 bytes
  1007 ;; Hardware stack levels used: 1
  1008 ;; Hardware stack levels required when called: 4
  1009 ;; This function calls:
  1010 ;;		Nothing
  1011 ;; This function is called by:
  1012 ;;		_main
  1013 ;;		_TMR1_Reload
  1014 ;; This function uses a non-reentrant model
  1015 ;;
  1016                           
  1017                           	psect	text5
  1018  00068A                     __ptext5:
  1019                           	callstack 0
  1020  00068A                     _TMR1_WriteTimer:
  1021                           	callstack 123
  1022  00068A                     
  1023                           ;mcc_generated_files/tmr1.c: 127: void TMR1_WriteTimer(uint16_t timerVal);mcc_generated_
      +                          files/tmr1.c: 128: {;mcc_generated_files/tmr1.c: 129:     if (T1CONbits.NOT_SYNC == 1)
  1024  00068A  0103               	movlb	3	; () banked
  1025  00068C  A51E               	btfss	30,2,b	;volatile
  1026  00068E  EF4B  F003         	goto	u411
  1027  000692  EF4D  F003         	goto	u410
  1028  000696                     u411:
  1029  000696  EF56  F003         	goto	l1911
  1030  00069A                     u410:
  1031  00069A                     
  1032                           ; BSR set to: 3
  1033                           ;mcc_generated_files/tmr1.c: 130:     {;mcc_generated_files/tmr1.c: 132:         T1CONbi
      +                          ts.TMR1ON = 0;
  1034  00069A  911E               	bcf	30,0,b	;volatile
  1035  00069C                     
  1036                           ; BSR set to: 3
  1037                           ;mcc_generated_files/tmr1.c: 135:         TMR1H = (uint8_t)(timerVal >> 8);
  1038  00069C  5038               	movf	(TMR1_WriteTimer@timerVal+1)^(0+1280),w,c
  1039  00069E  6F1D               	movwf	29,b	;volatile
  1040  0006A0                     
  1041                           ; BSR set to: 3
  1042                           ;mcc_generated_files/tmr1.c: 136:         TMR1L = (uint8_t)timerVal;
  1043  0006A0  0061  F4DC  F31C   	movff	TMR1_WriteTimer@timerVal,796	;volatile
  1044  0006A6                     
  1045                           ; BSR set to: 3
  1046                           ;mcc_generated_files/tmr1.c: 139:         T1CONbits.TMR1ON =1;
  1047  0006A6  811E               	bsf	30,0,b	;volatile
  1048                           
  1049                           ;mcc_generated_files/tmr1.c: 140:     }
  1050  0006A8  EF5B  F003         	goto	l416
  1051  0006AC                     l1911:
  1052                           
  1053                           ; BSR set to: 3
  1054                           ;mcc_generated_files/tmr1.c: 142:     {;mcc_generated_files/tmr1.c: 144:         TMR1H =
      +                           (uint8_t)(timerVal >> 8);
  1055  0006AC  5038               	movf	(TMR1_WriteTimer@timerVal+1)^(0+1280),w,c
  1056  0006AE  6F1D               	movwf	29,b	;volatile
  1057  0006B0                     
  1058                           ; BSR set to: 3
  1059                           ;mcc_generated_files/tmr1.c: 145:         TMR1L = (uint8_t)timerVal;
  1060  0006B0  0061  F4DC  F31C   	movff	TMR1_WriteTimer@timerVal,796	;volatile
  1061  0006B6                     l416:
  1062                           
  1063                           ; BSR set to: 3
  1064  0006B6  0012               	return		;funcret
  1065  0006B8                     __end_of_TMR1_WriteTimer:
  1066                           	callstack 0
  1067                           
  1068 ;; *************** function _TMR1_StopTimer *****************
  1069 ;; Defined at:
  1070 ;;		line 105 in file "mcc_generated_files/tmr1.c"
  1071 ;; Parameters:    Size  Location     Type
  1072 ;;		None
  1073 ;; Auto vars:     Size  Location     Type
  1074 ;;		None
  1075 ;; Return value:  Size  Location     Type
  1076 ;;                  1    wreg      void 
  1077 ;; Registers used:
  1078 ;;		None
  1079 ;; Tracked objects:
  1080 ;;		On entry : 0/0
  1081 ;;		On exit  : 0/0
  1082 ;;		Unchanged: 0/0
  1083 ;; Data sizes:     COMRAM   BANK5   BANK6   BANK7   BANK8   BANK9  BANK10  BANK11  BANK12  BANK13  BANK14  BANK15  BANK1
      +6  BANK17  BANK18  BANK19  BANK20  BANK21  BANK22  BANK23  BANK24  BANK25  BANK26  BANK27  BANK28  BANK29  BANK30  BANK3
      +1  BANK32  BANK33  BANK34  BANK35  BANK36  BANK37
  1084 ;;      Params:         0       0       0       0       0       0       0       0       0       0       0       0       
      +0       0       0       0       0       0       0       0       0       0       0       0       0       0       0       
      +0       0       0       0       0       0       0
  1085 ;;      Locals:         0       0       0       0       0       0       0       0       0       0       0       0       
      +0       0       0       0       0       0       0       0       0       0       0       0       0       0       0       
      +0       0       0       0       0       0       0
  1086 ;;      Temps:          0       0       0       0       0       0       0       0       0       0       0       0       
      +0       0       0       0       0       0       0       0       0       0       0       0       0       0       0       
      +0       0       0       0       0       0       0
  1087 ;;      Totals:         0       0       0       0       0       0       0       0       0       0       0       0       
      +0       0       0       0       0       0       0       0       0       0       0       0       0       0       0       
      +0       0       0       0       0       0       0
  1088 ;;Total ram usage:        0 bytes
  1089 ;; Hardware stack levels used: 1
  1090 ;; Hardware stack levels required when called: 4
  1091 ;; This function calls:
  1092 ;;		Nothing
  1093 ;; This function is called by:
  1094 ;;		_main
  1095 ;; This function uses a non-reentrant model
  1096 ;;
  1097                           
  1098                           	psect	text6
  1099  0007FE                     __ptext6:
  1100                           	callstack 0
  1101  0007FE                     _TMR1_StopTimer:
  1102                           	callstack 123
  1103  0007FE                     
  1104                           ;mcc_generated_files/tmr1.c: 108:     T1CONbits.TMR1ON = 0;
  1105  0007FE  0103               	movlb	3	; () banked
  1106  000800  911E               	bcf	30,0,b	;volatile
  1107  000802                     
  1108                           ; BSR set to: 3
  1109  000802  0012               	return		;funcret
  1110  000804                     __end_of_TMR1_StopTimer:
  1111                           	callstack 0
  1112                           
  1113 ;; *************** function _TMR1_StartTimer *****************
  1114 ;; Defined at:
  1115 ;;		line 99 in file "mcc_generated_files/tmr1.c"
  1116 ;; Parameters:    Size  Location     Type
  1117 ;;		None
  1118 ;; Auto vars:     Size  Location     Type
  1119 ;;		None
  1120 ;; Return value:  Size  Location     Type
  1121 ;;                  1    wreg      void 
  1122 ;; Registers used:
  1123 ;;		None
  1124 ;; Tracked objects:
  1125 ;;		On entry : 0/0
  1126 ;;		On exit  : 0/0
  1127 ;;		Unchanged: 0/0
  1128 ;; Data sizes:     COMRAM   BANK5   BANK6   BANK7   BANK8   BANK9  BANK10  BANK11  BANK12  BANK13  BANK14  BANK15  BANK1
      +6  BANK17  BANK18  BANK19  BANK20  BANK21  BANK22  BANK23  BANK24  BANK25  BANK26  BANK27  BANK28  BANK29  BANK30  BANK3
      +1  BANK32  BANK33  BANK34  BANK35  BANK36  BANK37
  1129 ;;      Params:         0       0       0       0       0       0       0       0       0       0       0       0       
      +0       0       0       0       0       0       0       0       0       0       0       0       0       0       0       
      +0       0       0       0       0       0       0
  1130 ;;      Locals:         0       0       0       0       0       0       0       0       0       0       0       0       
      +0       0       0       0       0       0       0       0       0       0       0       0       0       0       0       
      +0       0       0       0       0       0       0
  1131 ;;      Temps:          0       0       0       0       0       0       0       0       0       0       0       0       
      +0       0       0       0       0       0       0       0       0       0       0       0       0       0       0       
      +0       0       0       0       0       0       0
  1132 ;;      Totals:         0       0       0       0       0       0       0       0       0       0       0       0       
      +0       0       0       0       0       0       0       0       0       0       0       0       0       0       0       
      +0       0       0       0       0       0       0
  1133 ;;Total ram usage:        0 bytes
  1134 ;; Hardware stack levels used: 1
  1135 ;; Hardware stack levels required when called: 4
  1136 ;; This function calls:
  1137 ;;		Nothing
  1138 ;; This function is called by:
  1139 ;;		_main
  1140 ;; This function uses a non-reentrant model
  1141 ;;
  1142                           
  1143                           	psect	text7
  1144  000804                     __ptext7:
  1145                           	callstack 0
  1146  000804                     _TMR1_StartTimer:
  1147                           	callstack 123
  1148  000804                     
  1149                           ;mcc_generated_files/tmr1.c: 102:     T1CONbits.TMR1ON = 1;
  1150  000804  0103               	movlb	3	; () banked
  1151  000806  811E               	bsf	30,0,b	;volatile
  1152  000808                     
  1153                           ; BSR set to: 3
  1154  000808  0012               	return		;funcret
  1155  00080A                     __end_of_TMR1_StartTimer:
  1156                           	callstack 0
  1157                           
  1158 ;; *************** function _SYSTEM_Initialize *****************
  1159 ;; Defined at:
  1160 ;;		line 50 in file "mcc_generated_files/mcc.c"
  1161 ;; Parameters:    Size  Location     Type
  1162 ;;		None
  1163 ;; Auto vars:     Size  Location     Type
  1164 ;;		None
  1165 ;; Return value:  Size  Location     Type
  1166 ;;                  1    wreg      void 
  1167 ;; Registers used:
  1168 ;;		wreg, status,2, status,0, cstack
  1169 ;; Tracked objects:
  1170 ;;		On entry : 0/0
  1171 ;;		On exit  : 0/0
  1172 ;;		Unchanged: 0/0
  1173 ;; Data sizes:     COMRAM   BANK5   BANK6   BANK7   BANK8   BANK9  BANK10  BANK11  BANK12  BANK13  BANK14  BANK15  BANK1
      +6  BANK17  BANK18  BANK19  BANK20  BANK21  BANK22  BANK23  BANK24  BANK25  BANK26  BANK27  BANK28  BANK29  BANK30  BANK3
      +1  BANK32  BANK33  BANK34  BANK35  BANK36  BANK37
  1174 ;;      Params:         0       0       0       0       0       0       0       0       0       0       0       0       
      +0       0       0       0       0       0       0       0       0       0       0       0       0       0       0       
      +0       0       0       0       0       0       0
  1175 ;;      Locals:         0       0       0       0       0       0       0       0       0       0       0       0       
      +0       0       0       0       0       0       0       0       0       0       0       0       0       0       0       
      +0       0       0       0       0       0       0
  1176 ;;      Temps:          0       0       0       0       0       0       0       0       0       0       0       0       
      +0       0       0       0       0       0       0       0       0       0       0       0       0       0       0       
      +0       0       0       0       0       0       0
  1177 ;;      Totals:         0       0       0       0       0       0       0       0       0       0       0       0       
      +0       0       0       0       0       0       0       0       0       0       0       0       0       0       0       
      +0       0       0       0       0       0       0
  1178 ;;Total ram usage:        0 bytes
  1179 ;; Hardware stack levels used: 1
  1180 ;; Hardware stack levels required when called: 6
  1181 ;; This function calls:
  1182 ;;		_ADCC_Initialize
  1183 ;;		_INTERRUPT_Initialize
  1184 ;;		_NCO1_Initialize
  1185 ;;		_OSCILLATOR_Initialize
  1186 ;;		_PIN_MANAGER_Initialize
  1187 ;;		_PMD_Initialize
  1188 ;;		_TMR1_Initialize
  1189 ;;		_UART1_Initialize
  1190 ;; This function is called by:
  1191 ;;		_main
  1192 ;; This function uses a non-reentrant model
  1193 ;;
  1194                           
  1195                           	psect	text8
  1196  00072C                     __ptext8:
  1197                           	callstack 0
  1198  00072C                     _SYSTEM_Initialize:
  1199                           	callstack 121
  1200  00072C                     
  1201                           ;mcc_generated_files/mcc.c: 52:     INTERRUPT_Initialize();
  1202  00072C  EC0B  F004         	call	_INTERRUPT_Initialize	;wreg free
  1203  000730                     
  1204                           ;mcc_generated_files/mcc.c: 53:     PMD_Initialize();
  1205  000730  EC84  F003         	call	_PMD_Initialize	;wreg free
  1206  000734                     
  1207                           ;mcc_generated_files/mcc.c: 54:     PIN_MANAGER_Initialize();
  1208  000734  ECE4  F001         	call	_PIN_MANAGER_Initialize	;wreg free
  1209  000738                     
  1210                           ;mcc_generated_files/mcc.c: 55:     OSCILLATOR_Initialize();
  1211  000738  ECA7  F003         	call	_OSCILLATOR_Initialize	;wreg free
  1212  00073C                     
  1213                           ;mcc_generated_files/mcc.c: 56:     ADCC_Initialize();
  1214  00073C  EC20  F002         	call	_ADCC_Initialize	;wreg free
  1215  000740                     
  1216                           ;mcc_generated_files/mcc.c: 57:     NCO1_Initialize();
  1217  000740  EC71  F003         	call	_NCO1_Initialize	;wreg free
  1218  000744                     
  1219                           ;mcc_generated_files/mcc.c: 58:     TMR1_Initialize();
  1220  000744  ECAD  F002         	call	_TMR1_Initialize	;wreg free
  1221  000748                     
  1222                           ;mcc_generated_files/mcc.c: 59:     UART1_Initialize();
  1223  000748  EC8B  F001         	call	_UART1_Initialize	;wreg free
  1224  00074C  0012               	return		;funcret
  1225  00074E                     __end_of_SYSTEM_Initialize:
  1226                           	callstack 0
  1227                           
  1228 ;; *************** function _UART1_Initialize *****************
  1229 ;; Defined at:
  1230 ;;		line 86 in file "mcc_generated_files/uart1.c"
  1231 ;; Parameters:    Size  Location     Type
  1232 ;;		None
  1233 ;; Auto vars:     Size  Location     Type
  1234 ;;		None
  1235 ;; Return value:  Size  Location     Type
  1236 ;;                  1    wreg      void 
  1237 ;; Registers used:
  1238 ;;		wreg, status,2, status,0, cstack
  1239 ;; Tracked objects:
  1240 ;;		On entry : 0/0
  1241 ;;		On exit  : 0/0
  1242 ;;		Unchanged: 0/0
  1243 ;; Data sizes:     COMRAM   BANK5   BANK6   BANK7   BANK8   BANK9  BANK10  BANK11  BANK12  BANK13  BANK14  BANK15  BANK1
      +6  BANK17  BANK18  BANK19  BANK20  BANK21  BANK22  BANK23  BANK24  BANK25  BANK26  BANK27  BANK28  BANK29  BANK30  BANK3
      +1  BANK32  BANK33  BANK34  BANK35  BANK36  BANK37
  1244 ;;      Params:         0       0       0       0       0       0       0       0       0       0       0       0       
      +0       0       0       0       0       0       0       0       0       0       0       0       0       0       0       
      +0       0       0       0       0       0       0
  1245 ;;      Locals:         0       0       0       0       0       0       0       0       0       0       0       0       
      +0       0       0       0       0       0       0       0       0       0       0       0       0       0       0       
      +0       0       0       0       0       0       0
  1246 ;;      Temps:          0       0       0       0       0       0       0       0       0       0       0       0       
      +0       0       0       0       0       0       0       0       0       0       0       0       0       0       0       
      +0       0       0       0       0       0       0
  1247 ;;      Totals:         0       0       0       0       0       0       0       0       0       0       0       0       
      +0       0       0       0       0       0       0       0       0       0       0       0       0       0       0       
      +0       0       0       0       0       0       0
  1248 ;;Total ram usage:        0 bytes
  1249 ;; Hardware stack levels used: 1
  1250 ;; Hardware stack levels required when called: 5
  1251 ;; This function calls:
  1252 ;;		_UART1_SetErrorHandler
  1253 ;;		_UART1_SetFramingErrorHandler
  1254 ;;		_UART1_SetOverrunErrorHandler
  1255 ;;		_UART1_SetRxInterruptHandler
  1256 ;;		_UART1_SetTxInterruptHandler
  1257 ;; This function is called by:
  1258 ;;		_SYSTEM_Initialize
  1259 ;; This function uses a non-reentrant model
  1260 ;;
  1261                           
  1262                           	psect	text9
  1263  000316                     __ptext9:
  1264                           	callstack 0
  1265  000316                     _UART1_Initialize:
  1266                           	callstack 121
  1267  000316                     
  1268                           ;mcc_generated_files/uart1.c: 89:     PIE4bits.U1RXIE = 0;
  1269  000316  90A2               	bcf	162,0,c	;volatile
  1270  000318                     
  1271                           ;mcc_generated_files/uart1.c: 90:     UART1_SetRxInterruptHandler(UART1_Receive_ISR);
  1272  000318  0E98               	movlw	low _UART1_Receive_ISR
  1273  00031A  6E37               	movwf	UART1_SetRxInterruptHandler@InterruptHandler^(0+1280),c
  1274  00031C  0E01               	movlw	high _UART1_Receive_ISR
  1275  00031E  6E38               	movwf	(UART1_SetRxInterruptHandler@InterruptHandler+1)^(0+1280),c
  1276  000320  0E00               	movlw	low (_UART1_Receive_ISR shr (0+16))
  1277  000322  6E39               	movwf	(UART1_SetRxInterruptHandler@InterruptHandler+2)^(0+1280),c
  1278  000324  ECD2  F003         	call	_UART1_SetRxInterruptHandler	;wreg free
  1279  000328                     
  1280                           ;mcc_generated_files/uart1.c: 91:     PIE4bits.U1TXIE = 0;
  1281  000328  92A2               	bcf	162,1,c	;volatile
  1282                           
  1283                           ;mcc_generated_files/uart1.c: 92:     UART1_SetTxInterruptHandler(UART1_Transmit_ISR);
  1284  00032A  0EA4               	movlw	low _UART1_Transmit_ISR
  1285  00032C  6E37               	movwf	UART1_SetTxInterruptHandler@InterruptHandler^(0+1280),c
  1286  00032E  0E05               	movlw	high _UART1_Transmit_ISR
  1287  000330  6E38               	movwf	(UART1_SetTxInterruptHandler@InterruptHandler+1)^(0+1280),c
  1288  000332  0E00               	movlw	low (_UART1_Transmit_ISR shr (0+16))
  1289  000334  6E39               	movwf	(UART1_SetTxInterruptHandler@InterruptHandler+2)^(0+1280),c
  1290  000336  ECCB  F003         	call	_UART1_SetTxInterruptHandler	;wreg free
  1291  00033A                     
  1292                           ;mcc_generated_files/uart1.c: 97:     U1P1L = 0x00;
  1293  00033A  0E00               	movlw	0
  1294  00033C  0102               	movlb	2	; () banked
  1295  00033E  6FA5               	movwf	165,b	;volatile
  1296  000340                     
  1297                           ; BSR set to: 2
  1298                           ;mcc_generated_files/uart1.c: 100:     U1P1H = 0x00;
  1299  000340  0E00               	movlw	0
  1300  000342  6FA6               	movwf	166,b	;volatile
  1301  000344                     
  1302                           ; BSR set to: 2
  1303                           ;mcc_generated_files/uart1.c: 103:     U1P2L = 0x00;
  1304  000344  0E00               	movlw	0
  1305  000346  6FA7               	movwf	167,b	;volatile
  1306  000348                     
  1307                           ; BSR set to: 2
  1308                           ;mcc_generated_files/uart1.c: 106:     U1P2H = 0x00;
  1309  000348  0E00               	movlw	0
  1310  00034A  6FA8               	movwf	168,b	;volatile
  1311  00034C                     
  1312                           ; BSR set to: 2
  1313                           ;mcc_generated_files/uart1.c: 109:     U1P3L = 0x00;
  1314  00034C  0E00               	movlw	0
  1315  00034E  6FA9               	movwf	169,b	;volatile
  1316  000350                     
  1317                           ; BSR set to: 2
  1318                           ;mcc_generated_files/uart1.c: 112:     U1P3H = 0x00;
  1319  000350  0E00               	movlw	0
  1320  000352  6FAA               	movwf	170,b	;volatile
  1321  000354                     
  1322                           ; BSR set to: 2
  1323                           ;mcc_generated_files/uart1.c: 115:     U1CON0 = 0xB0;
  1324  000354  0EB0               	movlw	176
  1325  000356  6FAB               	movwf	171,b	;volatile
  1326  000358                     
  1327                           ; BSR set to: 2
  1328                           ;mcc_generated_files/uart1.c: 118:     U1CON1 = 0x80;
  1329  000358  0E80               	movlw	128
  1330  00035A  6FAC               	movwf	172,b	;volatile
  1331  00035C                     
  1332                           ; BSR set to: 2
  1333                           ;mcc_generated_files/uart1.c: 121:     U1CON2 = 0x00;
  1334  00035C  0E00               	movlw	0
  1335  00035E  6FAD               	movwf	173,b	;volatile
  1336  000360                     
  1337                           ; BSR set to: 2
  1338                           ;mcc_generated_files/uart1.c: 124:     U1BRGL = 0x82;
  1339  000360  0E82               	movlw	130
  1340  000362  6FAE               	movwf	174,b	;volatile
  1341  000364                     
  1342                           ; BSR set to: 2
  1343                           ;mcc_generated_files/uart1.c: 127:     U1BRGH = 0x06;
  1344  000364  0E06               	movlw	6
  1345  000366  6FAF               	movwf	175,b	;volatile
  1346  000368                     
  1347                           ; BSR set to: 2
  1348                           ;mcc_generated_files/uart1.c: 130:     U1FIFO = 0x00;
  1349  000368  0E00               	movlw	0
  1350  00036A  6FB0               	movwf	176,b	;volatile
  1351  00036C                     
  1352                           ; BSR set to: 2
  1353                           ;mcc_generated_files/uart1.c: 133:     U1UIR = 0x00;
  1354  00036C  0E00               	movlw	0
  1355  00036E  6FB1               	movwf	177,b	;volatile
  1356  000370                     
  1357                           ; BSR set to: 2
  1358                           ;mcc_generated_files/uart1.c: 136:     U1ERRIR = 0x00;
  1359  000370  0E00               	movlw	0
  1360  000372  6FB2               	movwf	178,b	;volatile
  1361  000374                     
  1362                           ; BSR set to: 2
  1363                           ;mcc_generated_files/uart1.c: 139:     U1ERRIE = 0x00;
  1364  000374  0E00               	movlw	0
  1365  000376  6FB3               	movwf	179,b	;volatile
  1366  000378                     
  1367                           ; BSR set to: 2
  1368                           ;mcc_generated_files/uart1.c: 142:     UART1_SetFramingErrorHandler(UART1_DefaultFraming
      +                          ErrorHandler);
  1369  000378  0E1C               	movlw	low _UART1_DefaultFramingErrorHandler
  1370  00037A  6E37               	movwf	UART1_SetFramingErrorHandler@interruptHandler^(0+1280),c
  1371  00037C  0E08               	movlw	high _UART1_DefaultFramingErrorHandler
  1372  00037E  6E38               	movwf	(UART1_SetFramingErrorHandler@interruptHandler+1)^(0+1280),c
  1373  000380  0E00               	movlw	low (_UART1_DefaultFramingErrorHandler shr (0+16))
  1374  000382  6E39               	movwf	(UART1_SetFramingErrorHandler@interruptHandler+2)^(0+1280),c
  1375  000384  ECE0  F003         	call	_UART1_SetFramingErrorHandler	;wreg free
  1376  000388                     
  1377                           ;mcc_generated_files/uart1.c: 143:     UART1_SetOverrunErrorHandler(UART1_DefaultOverrun
      +                          ErrorHandler);
  1378  000388  0E1A               	movlw	low _UART1_DefaultOverrunErrorHandler
  1379  00038A  6E37               	movwf	UART1_SetOverrunErrorHandler@interruptHandler^(0+1280),c
  1380  00038C  0E08               	movlw	high _UART1_DefaultOverrunErrorHandler
  1381  00038E  6E38               	movwf	(UART1_SetOverrunErrorHandler@interruptHandler+1)^(0+1280),c
  1382  000390  0E00               	movlw	low (_UART1_DefaultOverrunErrorHandler shr (0+16))
  1383  000392  6E39               	movwf	(UART1_SetOverrunErrorHandler@interruptHandler+2)^(0+1280),c
  1384  000394  ECD9  F003         	call	_UART1_SetOverrunErrorHandler	;wreg free
  1385  000398                     
  1386                           ;mcc_generated_files/uart1.c: 144:     UART1_SetErrorHandler(UART1_DefaultErrorHandler);
  1387  000398  0E0A               	movlw	low _UART1_DefaultErrorHandler
  1388  00039A  6E37               	movwf	UART1_SetErrorHandler@interruptHandler^(0+1280),c
  1389  00039C  0E08               	movlw	high _UART1_DefaultErrorHandler
  1390  00039E  6E38               	movwf	(UART1_SetErrorHandler@interruptHandler+1)^(0+1280),c
  1391  0003A0  0E00               	movlw	low (_UART1_DefaultErrorHandler shr (0+16))
  1392  0003A2  6E39               	movwf	(UART1_SetErrorHandler@interruptHandler+2)^(0+1280),c
  1393  0003A4  ECE7  F003         	call	_UART1_SetErrorHandler	;wreg free
  1394                           
  1395                           ;mcc_generated_files/uart1.c: 146:     uart1RxLastError.status = 0;
  1396  0003A8  0E00               	movlw	0
  1397  0003AA  6E19               	movwf	_uart1RxLastError^(0+1280),c	;volatile
  1398                           
  1399                           ;mcc_generated_files/uart1.c: 149:     uart1TxHead = 0;
  1400  0003AC  0E00               	movlw	0
  1401  0003AE  6E1E               	movwf	_uart1TxHead^(0+1280),c	;volatile
  1402                           
  1403                           ;mcc_generated_files/uart1.c: 150:     uart1TxTail = 0;
  1404  0003B0  0E00               	movlw	0
  1405  0003B2  6E1D               	movwf	_uart1TxTail^(0+1280),c	;volatile
  1406                           
  1407                           ;mcc_generated_files/uart1.c: 151:     uart1TxBufferRemaining = sizeof(uart1TxBuffer);
  1408  0003B4  0E08               	movlw	8
  1409  0003B6  6E36               	movwf	_uart1TxBufferRemaining^(0+1280),c	;volatile
  1410                           
  1411                           ;mcc_generated_files/uart1.c: 152:     uart1RxHead = 0;
  1412  0003B8  0E00               	movlw	0
  1413  0003BA  6E1C               	movwf	_uart1RxHead^(0+1280),c	;volatile
  1414                           
  1415                           ;mcc_generated_files/uart1.c: 153:     uart1RxTail = 0;
  1416  0003BC  0E00               	movlw	0
  1417  0003BE  6E1B               	movwf	_uart1RxTail^(0+1280),c	;volatile
  1418                           
  1419                           ;mcc_generated_files/uart1.c: 154:     uart1RxCount = 0;
  1420  0003C0  0E00               	movlw	0
  1421  0003C2  6E1A               	movwf	_uart1RxCount^(0+1280),c	;volatile
  1422  0003C4                     
  1423                           ;mcc_generated_files/uart1.c: 157:     PIE4bits.U1RXIE = 1;
  1424  0003C4  80A2               	bsf	162,0,c	;volatile
  1425  0003C6  0012               	return		;funcret
  1426  0003C8                     __end_of_UART1_Initialize:
  1427                           	callstack 0
  1428                           
  1429 ;; *************** function _UART1_SetTxInterruptHandler *****************
  1430 ;; Defined at:
  1431 ;;		line 318 in file "mcc_generated_files/uart1.c"
  1432 ;; Parameters:    Size  Location     Type
  1433 ;;  InterruptHan    3    0[COMRAM] PTR FTN()void 
  1434 ;;		 -> UART1_Transmit_ISR(1), 
  1435 ;; Auto vars:     Size  Location     Type
  1436 ;;		None
  1437 ;; Return value:  Size  Location     Type
  1438 ;;                  1    wreg      void 
  1439 ;; Registers used:
  1440 ;;		wreg, status,2, status,0
  1441 ;; Tracked objects:
  1442 ;;		On entry : 0/0
  1443 ;;		On exit  : 0/0
  1444 ;;		Unchanged: 0/0
  1445 ;; Data sizes:     COMRAM   BANK5   BANK6   BANK7   BANK8   BANK9  BANK10  BANK11  BANK12  BANK13  BANK14  BANK15  BANK1
      +6  BANK17  BANK18  BANK19  BANK20  BANK21  BANK22  BANK23  BANK24  BANK25  BANK26  BANK27  BANK28  BANK29  BANK30  BANK3
      +1  BANK32  BANK33  BANK34  BANK35  BANK36  BANK37
  1446 ;;      Params:         3       0       0       0       0       0       0       0       0       0       0       0       
      +0       0       0       0       0       0       0       0       0       0       0       0       0       0       0       
      +0       0       0       0       0       0       0
  1447 ;;      Locals:         0       0       0       0       0       0       0       0       0       0       0       0       
      +0       0       0       0       0       0       0       0       0       0       0       0       0       0       0       
      +0       0       0       0       0       0       0
  1448 ;;      Temps:          0       0       0       0       0       0       0       0       0       0       0       0       
      +0       0       0       0       0       0       0       0       0       0       0       0       0       0       0       
      +0       0       0       0       0       0       0
  1449 ;;      Totals:         3       0       0       0       0       0       0       0       0       0       0       0       
      +0       0       0       0       0       0       0       0       0       0       0       0       0       0       0       
      +0       0       0       0       0       0       0
  1450 ;;Total ram usage:        3 bytes
  1451 ;; Hardware stack levels used: 1
  1452 ;; Hardware stack levels required when called: 4
  1453 ;; This function calls:
  1454 ;;		Nothing
  1455 ;; This function is called by:
  1456 ;;		_UART1_Initialize
  1457 ;; This function uses a non-reentrant model
  1458 ;;
  1459                           
  1460                           	psect	text10
  1461  000796                     __ptext10:
  1462                           	callstack 0
  1463  000796                     _UART1_SetTxInterruptHandler:
  1464                           	callstack 121
  1465  000796                     
  1466                           ;mcc_generated_files/uart1.c: 319:     UART1_TxInterruptHandler = InterruptHandler;
  1467  000796  C537  F52E         	movff	UART1_SetTxInterruptHandler@InterruptHandler,_UART1_TxInterruptHandler
  1468  00079A  C538  F52F         	movff	UART1_SetTxInterruptHandler@InterruptHandler+1,_UART1_TxInterruptHandler+1
  1469  00079E  C539  F530         	movff	UART1_SetTxInterruptHandler@InterruptHandler+2,_UART1_TxInterruptHandler+2
  1470  0007A2  0012               	return		;funcret
  1471  0007A4                     __end_of_UART1_SetTxInterruptHandler:
  1472                           	callstack 0
  1473                           
  1474 ;; *************** function _UART1_SetRxInterruptHandler *****************
  1475 ;; Defined at:
  1476 ;;		line 314 in file "mcc_generated_files/uart1.c"
  1477 ;; Parameters:    Size  Location     Type
  1478 ;;  InterruptHan    3    0[COMRAM] PTR FTN()void 
  1479 ;;		 -> UART1_Receive_ISR(1), 
  1480 ;; Auto vars:     Size  Location     Type
  1481 ;;		None
  1482 ;; Return value:  Size  Location     Type
  1483 ;;                  1    wreg      void 
  1484 ;; Registers used:
  1485 ;;		wreg, status,2, status,0
  1486 ;; Tracked objects:
  1487 ;;		On entry : 0/0
  1488 ;;		On exit  : 0/0
  1489 ;;		Unchanged: 0/0
  1490 ;; Data sizes:     COMRAM   BANK5   BANK6   BANK7   BANK8   BANK9  BANK10  BANK11  BANK12  BANK13  BANK14  BANK15  BANK1
      +6  BANK17  BANK18  BANK19  BANK20  BANK21  BANK22  BANK23  BANK24  BANK25  BANK26  BANK27  BANK28  BANK29  BANK30  BANK3
      +1  BANK32  BANK33  BANK34  BANK35  BANK36  BANK37
  1491 ;;      Params:         3       0       0       0       0       0       0       0       0       0       0       0       
      +0       0       0       0       0       0       0       0       0       0       0       0       0       0       0       
      +0       0       0       0       0       0       0
  1492 ;;      Locals:         0       0       0       0       0       0       0       0       0       0       0       0       
      +0       0       0       0       0       0       0       0       0       0       0       0       0       0       0       
      +0       0       0       0       0       0       0
  1493 ;;      Temps:          0       0       0       0       0       0       0       0       0       0       0       0       
      +0       0       0       0       0       0       0       0       0       0       0       0       0       0       0       
      +0       0       0       0       0       0       0
  1494 ;;      Totals:         3       0       0       0       0       0       0       0       0       0       0       0       
      +0       0       0       0       0       0       0       0       0       0       0       0       0       0       0       
      +0       0       0       0       0       0       0
  1495 ;;Total ram usage:        3 bytes
  1496 ;; Hardware stack levels used: 1
  1497 ;; Hardware stack levels required when called: 4
  1498 ;; This function calls:
  1499 ;;		Nothing
  1500 ;; This function is called by:
  1501 ;;		_UART1_Initialize
  1502 ;; This function uses a non-reentrant model
  1503 ;;
  1504                           
  1505                           	psect	text11
  1506  0007A4                     __ptext11:
  1507                           	callstack 0
  1508  0007A4                     _UART1_SetRxInterruptHandler:
  1509                           	callstack 121
  1510  0007A4                     
  1511                           ;mcc_generated_files/uart1.c: 315:     UART1_RxInterruptHandler = InterruptHandler;
  1512  0007A4  C537  F531         	movff	UART1_SetRxInterruptHandler@InterruptHandler,_UART1_RxInterruptHandler
  1513  0007A8  C538  F532         	movff	UART1_SetRxInterruptHandler@InterruptHandler+1,_UART1_RxInterruptHandler+1
  1514  0007AC  C539  F533         	movff	UART1_SetRxInterruptHandler@InterruptHandler+2,_UART1_RxInterruptHandler+2
  1515  0007B0  0012               	return		;funcret
  1516  0007B2                     __end_of_UART1_SetRxInterruptHandler:
  1517                           	callstack 0
  1518                           
  1519 ;; *************** function _UART1_SetOverrunErrorHandler *****************
  1520 ;; Defined at:
  1521 ;;		line 304 in file "mcc_generated_files/uart1.c"
  1522 ;; Parameters:    Size  Location     Type
  1523 ;;  interruptHan    3    0[COMRAM] PTR FTN()void 
  1524 ;;		 -> UART1_DefaultOverrunErrorHandler(1), 
  1525 ;; Auto vars:     Size  Location     Type
  1526 ;;		None
  1527 ;; Return value:  Size  Location     Type
  1528 ;;                  1    wreg      void 
  1529 ;; Registers used:
  1530 ;;		wreg, status,2, status,0
  1531 ;; Tracked objects:
  1532 ;;		On entry : 0/0
  1533 ;;		On exit  : 0/0
  1534 ;;		Unchanged: 0/0
  1535 ;; Data sizes:     COMRAM   BANK5   BANK6   BANK7   BANK8   BANK9  BANK10  BANK11  BANK12  BANK13  BANK14  BANK15  BANK1
      +6  BANK17  BANK18  BANK19  BANK20  BANK21  BANK22  BANK23  BANK24  BANK25  BANK26  BANK27  BANK28  BANK29  BANK30  BANK3
      +1  BANK32  BANK33  BANK34  BANK35  BANK36  BANK37
  1536 ;;      Params:         3       0       0       0       0       0       0       0       0       0       0       0       
      +0       0       0       0       0       0       0       0       0       0       0       0       0       0       0       
      +0       0       0       0       0       0       0
  1537 ;;      Locals:         0       0       0       0       0       0       0       0       0       0       0       0       
      +0       0       0       0       0       0       0       0       0       0       0       0       0       0       0       
      +0       0       0       0       0       0       0
  1538 ;;      Temps:          0       0       0       0       0       0       0       0       0       0       0       0       
      +0       0       0       0       0       0       0       0       0       0       0       0       0       0       0       
      +0       0       0       0       0       0       0
  1539 ;;      Totals:         3       0       0       0       0       0       0       0       0       0       0       0       
      +0       0       0       0       0       0       0       0       0       0       0       0       0       0       0       
      +0       0       0       0       0       0       0
  1540 ;;Total ram usage:        3 bytes
  1541 ;; Hardware stack levels used: 1
  1542 ;; Hardware stack levels required when called: 4
  1543 ;; This function calls:
  1544 ;;		Nothing
  1545 ;; This function is called by:
  1546 ;;		_UART1_Initialize
  1547 ;; This function uses a non-reentrant model
  1548 ;;
  1549                           
  1550                           	psect	text12
  1551  0007B2                     __ptext12:
  1552                           	callstack 0
  1553  0007B2                     _UART1_SetOverrunErrorHandler:
  1554                           	callstack 121
  1555  0007B2                     
  1556                           ;mcc_generated_files/uart1.c: 305:     UART1_OverrunErrorHandler = interruptHandler;
  1557  0007B2  C537  F522         	movff	UART1_SetOverrunErrorHandler@interruptHandler,_UART1_OverrunErrorHandler
  1558  0007B6  C538  F523         	movff	UART1_SetOverrunErrorHandler@interruptHandler+1,_UART1_OverrunErrorHandler+1
  1559  0007BA  C539  F524         	movff	UART1_SetOverrunErrorHandler@interruptHandler+2,_UART1_OverrunErrorHandler+2
  1560  0007BE  0012               	return		;funcret
  1561  0007C0                     __end_of_UART1_SetOverrunErrorHandler:
  1562                           	callstack 0
  1563                           
  1564 ;; *************** function _UART1_SetFramingErrorHandler *****************
  1565 ;; Defined at:
  1566 ;;		line 300 in file "mcc_generated_files/uart1.c"
  1567 ;; Parameters:    Size  Location     Type
  1568 ;;  interruptHan    3    0[COMRAM] PTR FTN()void 
  1569 ;;		 -> UART1_DefaultFramingErrorHandler(1), 
  1570 ;; Auto vars:     Size  Location     Type
  1571 ;;		None
  1572 ;; Return value:  Size  Location     Type
  1573 ;;                  1    wreg      void 
  1574 ;; Registers used:
  1575 ;;		wreg, status,2, status,0
  1576 ;; Tracked objects:
  1577 ;;		On entry : 0/0
  1578 ;;		On exit  : 0/0
  1579 ;;		Unchanged: 0/0
  1580 ;; Data sizes:     COMRAM   BANK5   BANK6   BANK7   BANK8   BANK9  BANK10  BANK11  BANK12  BANK13  BANK14  BANK15  BANK1
      +6  BANK17  BANK18  BANK19  BANK20  BANK21  BANK22  BANK23  BANK24  BANK25  BANK26  BANK27  BANK28  BANK29  BANK30  BANK3
      +1  BANK32  BANK33  BANK34  BANK35  BANK36  BANK37
  1581 ;;      Params:         3       0       0       0       0       0       0       0       0       0       0       0       
      +0       0       0       0       0       0       0       0       0       0       0       0       0       0       0       
      +0       0       0       0       0       0       0
  1582 ;;      Locals:         0       0       0       0       0       0       0       0       0       0       0       0       
      +0       0       0       0       0       0       0       0       0       0       0       0       0       0       0       
      +0       0       0       0       0       0       0
  1583 ;;      Temps:          0       0       0       0       0       0       0       0       0       0       0       0       
      +0       0       0       0       0       0       0       0       0       0       0       0       0       0       0       
      +0       0       0       0       0       0       0
  1584 ;;      Totals:         3       0       0       0       0       0       0       0       0       0       0       0       
      +0       0       0       0       0       0       0       0       0       0       0       0       0       0       0       
      +0       0       0       0       0       0       0
  1585 ;;Total ram usage:        3 bytes
  1586 ;; Hardware stack levels used: 1
  1587 ;; Hardware stack levels required when called: 4
  1588 ;; This function calls:
  1589 ;;		Nothing
  1590 ;; This function is called by:
  1591 ;;		_UART1_Initialize
  1592 ;; This function uses a non-reentrant model
  1593 ;;
  1594                           
  1595                           	psect	text13
  1596  0007C0                     __ptext13:
  1597                           	callstack 0
  1598  0007C0                     _UART1_SetFramingErrorHandler:
  1599                           	callstack 121
  1600  0007C0                     
  1601                           ;mcc_generated_files/uart1.c: 301:     UART1_FramingErrorHandler = interruptHandler;
  1602  0007C0  C537  F525         	movff	UART1_SetFramingErrorHandler@interruptHandler,_UART1_FramingErrorHandler
  1603  0007C4  C538  F526         	movff	UART1_SetFramingErrorHandler@interruptHandler+1,_UART1_FramingErrorHandler+1
  1604  0007C8  C539  F527         	movff	UART1_SetFramingErrorHandler@interruptHandler+2,_UART1_FramingErrorHandler+2
  1605  0007CC  0012               	return		;funcret
  1606  0007CE                     __end_of_UART1_SetFramingErrorHandler:
  1607                           	callstack 0
  1608                           
  1609 ;; *************** function _UART1_SetErrorHandler *****************
  1610 ;; Defined at:
  1611 ;;		line 308 in file "mcc_generated_files/uart1.c"
  1612 ;; Parameters:    Size  Location     Type
  1613 ;;  interruptHan    3    0[COMRAM] PTR FTN()void 
  1614 ;;		 -> UART1_DefaultErrorHandler(1), 
  1615 ;; Auto vars:     Size  Location     Type
  1616 ;;		None
  1617 ;; Return value:  Size  Location     Type
  1618 ;;                  1    wreg      void 
  1619 ;; Registers used:
  1620 ;;		wreg, status,2, status,0
  1621 ;; Tracked objects:
  1622 ;;		On entry : 0/0
  1623 ;;		On exit  : 0/0
  1624 ;;		Unchanged: 0/0
  1625 ;; Data sizes:     COMRAM   BANK5   BANK6   BANK7   BANK8   BANK9  BANK10  BANK11  BANK12  BANK13  BANK14  BANK15  BANK1
      +6  BANK17  BANK18  BANK19  BANK20  BANK21  BANK22  BANK23  BANK24  BANK25  BANK26  BANK27  BANK28  BANK29  BANK30  BANK3
      +1  BANK32  BANK33  BANK34  BANK35  BANK36  BANK37
  1626 ;;      Params:         3       0       0       0       0       0       0       0       0       0       0       0       
      +0       0       0       0       0       0       0       0       0       0       0       0       0       0       0       
      +0       0       0       0       0       0       0
  1627 ;;      Locals:         0       0       0       0       0       0       0       0       0       0       0       0       
      +0       0       0       0       0       0       0       0       0       0       0       0       0       0       0       
      +0       0       0       0       0       0       0
  1628 ;;      Temps:          0       0       0       0       0       0       0       0       0       0       0       0       
      +0       0       0       0       0       0       0       0       0       0       0       0       0       0       0       
      +0       0       0       0       0       0       0
  1629 ;;      Totals:         3       0       0       0       0       0       0       0       0       0       0       0       
      +0       0       0       0       0       0       0       0       0       0       0       0       0       0       0       
      +0       0       0       0       0       0       0
  1630 ;;Total ram usage:        3 bytes
  1631 ;; Hardware stack levels used: 1
  1632 ;; Hardware stack levels required when called: 4
  1633 ;; This function calls:
  1634 ;;		Nothing
  1635 ;; This function is called by:
  1636 ;;		_UART1_Initialize
  1637 ;; This function uses a non-reentrant model
  1638 ;;
  1639                           
  1640                           	psect	text14
  1641  0007CE                     __ptext14:
  1642                           	callstack 0
  1643  0007CE                     _UART1_SetErrorHandler:
  1644                           	callstack 121
  1645  0007CE                     
  1646                           ;mcc_generated_files/uart1.c: 309:     UART1_ErrorHandler = interruptHandler;
  1647  0007CE  C537  F51F         	movff	UART1_SetErrorHandler@interruptHandler,_UART1_ErrorHandler
  1648  0007D2  C538  F520         	movff	UART1_SetErrorHandler@interruptHandler+1,_UART1_ErrorHandler+1
  1649  0007D6  C539  F521         	movff	UART1_SetErrorHandler@interruptHandler+2,_UART1_ErrorHandler+2
  1650  0007DA  0012               	return		;funcret
  1651  0007DC                     __end_of_UART1_SetErrorHandler:
  1652                           	callstack 0
  1653                           
  1654 ;; *************** function _TMR1_Initialize *****************
  1655 ;; Defined at:
  1656 ;;		line 64 in file "mcc_generated_files/tmr1.c"
  1657 ;; Parameters:    Size  Location     Type
  1658 ;;		None
  1659 ;; Auto vars:     Size  Location     Type
  1660 ;;		None
  1661 ;; Return value:  Size  Location     Type
  1662 ;;                  1    wreg      void 
  1663 ;; Registers used:
  1664 ;;		wreg, status,2, status,0, cstack
  1665 ;; Tracked objects:
  1666 ;;		On entry : 0/0
  1667 ;;		On exit  : 0/0
  1668 ;;		Unchanged: 0/0
  1669 ;; Data sizes:     COMRAM   BANK5   BANK6   BANK7   BANK8   BANK9  BANK10  BANK11  BANK12  BANK13  BANK14  BANK15  BANK1
      +6  BANK17  BANK18  BANK19  BANK20  BANK21  BANK22  BANK23  BANK24  BANK25  BANK26  BANK27  BANK28  BANK29  BANK30  BANK3
      +1  BANK32  BANK33  BANK34  BANK35  BANK36  BANK37
  1670 ;;      Params:         0       0       0       0       0       0       0       0       0       0       0       0       
      +0       0       0       0       0       0       0       0       0       0       0       0       0       0       0       
      +0       0       0       0       0       0       0
  1671 ;;      Locals:         0       0       0       0       0       0       0       0       0       0       0       0       
      +0       0       0       0       0       0       0       0       0       0       0       0       0       0       0       
      +0       0       0       0       0       0       0
  1672 ;;      Temps:          2       0       0       0       0       0       0       0       0       0       0       0       
      +0       0       0       0       0       0       0       0       0       0       0       0       0       0       0       
      +0       0       0       0       0       0       0
  1673 ;;      Totals:         2       0       0       0       0       0       0       0       0       0       0       0       
      +0       0       0       0       0       0       0       0       0       0       0       0       0       0       0       
      +0       0       0       0       0       0       0
  1674 ;;Total ram usage:        2 bytes
  1675 ;; Hardware stack levels used: 1
  1676 ;; Hardware stack levels required when called: 5
  1677 ;; This function calls:
  1678 ;;		_TMR1_SetInterruptHandler
  1679 ;; This function is called by:
  1680 ;;		_SYSTEM_Initialize
  1681 ;; This function uses a non-reentrant model
  1682 ;;
  1683                           
  1684                           	psect	text15
  1685  00055A                     __ptext15:
  1686                           	callstack 0
  1687  00055A                     _TMR1_Initialize:
  1688                           	callstack 121
  1689  00055A                     
  1690                           ;mcc_generated_files/tmr1.c: 69:     T1GCON = 0x00;
  1691  00055A  0E00               	movlw	0
  1692  00055C  0103               	movlb	3	; () banked
  1693  00055E  6F1F               	movwf	31,b	;volatile
  1694                           
  1695                           ;mcc_generated_files/tmr1.c: 72:     T1GATE = 0x00;
  1696  000560  0E00               	movlw	0
  1697  000562  6F20               	movwf	32,b	;volatile
  1698                           
  1699                           ;mcc_generated_files/tmr1.c: 75:     T1CLK = 0x00;
  1700  000564  0E00               	movlw	0
  1701  000566  6F21               	movwf	33,b	;volatile
  1702                           
  1703                           ;mcc_generated_files/tmr1.c: 78:     TMR1H = 0x80;
  1704  000568  0E80               	movlw	128
  1705  00056A  6F1D               	movwf	29,b	;volatile
  1706                           
  1707                           ;mcc_generated_files/tmr1.c: 81:     TMR1L = 0x00;
  1708  00056C  0E00               	movlw	0
  1709  00056E  6F1C               	movwf	28,b	;volatile
  1710  000570                     
  1711                           ; BSR set to: 3
  1712                           ;mcc_generated_files/tmr1.c: 84:     PIR3bits.TMR1IF = 0;
  1713  000570  98B1               	bcf	177,4,c	;volatile
  1714  000572                     
  1715                           ; BSR set to: 3
  1716                           ;mcc_generated_files/tmr1.c: 87:     timer1ReloadVal=(uint16_t)((TMR1H << 8) | TMR1L);
  1717  000572  511C               	movf	28,w,b	;volatile
  1718  000574  0060 FC74  F53A    	movff	797,??_TMR1_Initialize	;volatile
  1719  00057A  6A3B               	clrf	(??_TMR1_Initialize+1)^(0+1280),c
  1720  00057C  C53A  F53B         	movff	??_TMR1_Initialize,??_TMR1_Initialize+1
  1721  000580  6A3A               	clrf	??_TMR1_Initialize^(0+1280),c
  1722  000582  103A               	iorwf	??_TMR1_Initialize^(0+1280),w,c
  1723  000584  6E34               	movwf	_timer1ReloadVal^(0+1280),c	;volatile
  1724  000586  503B               	movf	(??_TMR1_Initialize+1)^(0+1280),w,c
  1725  000588  6E35               	movwf	(_timer1ReloadVal+1)^(0+1280),c	;volatile
  1726  00058A                     
  1727                           ; BSR set to: 3
  1728                           ;mcc_generated_files/tmr1.c: 90:     PIE3bits.TMR1IE = 1;
  1729  00058A  88A1               	bsf	161,4,c	;volatile
  1730  00058C                     
  1731                           ; BSR set to: 3
  1732                           ;mcc_generated_files/tmr1.c: 93:     TMR1_SetInterruptHandler(TMR1_DefaultInterruptHandl
      +                          er);
  1733  00058C  0E10               	movlw	low _TMR1_DefaultInterruptHandler
  1734  00058E  6E37               	movwf	TMR1_SetInterruptHandler@InterruptHandler^(0+1280),c
  1735  000590  0E08               	movlw	high _TMR1_DefaultInterruptHandler
  1736  000592  6E38               	movwf	(TMR1_SetInterruptHandler@InterruptHandler+1)^(0+1280),c
  1737  000594  0E00               	movlw	low (_TMR1_DefaultInterruptHandler shr (0+16))
  1738  000596  6E39               	movwf	(TMR1_SetInterruptHandler@InterruptHandler+2)^(0+1280),c
  1739  000598  ECEE  F003         	call	_TMR1_SetInterruptHandler	;wreg free
  1740  00059C                     
  1741                           ;mcc_generated_files/tmr1.c: 96:     T1CON = 0x05;
  1742  00059C  0E05               	movlw	5
  1743  00059E  0103               	movlb	3	; () banked
  1744  0005A0  6F1E               	movwf	30,b	;volatile
  1745  0005A2                     
  1746                           ; BSR set to: 3
  1747  0005A2  0012               	return		;funcret
  1748  0005A4                     __end_of_TMR1_Initialize:
  1749                           	callstack 0
  1750                           
  1751 ;; *************** function _TMR1_SetInterruptHandler *****************
  1752 ;; Defined at:
  1753 ;;		line 178 in file "mcc_generated_files/tmr1.c"
  1754 ;; Parameters:    Size  Location     Type
  1755 ;;  InterruptHan    3    0[COMRAM] PTR FTN()void 
  1756 ;;		 -> TMR1_DefaultInterruptHandler(1), 
  1757 ;; Auto vars:     Size  Location     Type
  1758 ;;		None
  1759 ;; Return value:  Size  Location     Type
  1760 ;;                  1    wreg      void 
  1761 ;; Registers used:
  1762 ;;		wreg, status,2, status,0
  1763 ;; Tracked objects:
  1764 ;;		On entry : 0/0
  1765 ;;		On exit  : 0/0
  1766 ;;		Unchanged: 0/0
  1767 ;; Data sizes:     COMRAM   BANK5   BANK6   BANK7   BANK8   BANK9  BANK10  BANK11  BANK12  BANK13  BANK14  BANK15  BANK1
      +6  BANK17  BANK18  BANK19  BANK20  BANK21  BANK22  BANK23  BANK24  BANK25  BANK26  BANK27  BANK28  BANK29  BANK30  BANK3
      +1  BANK32  BANK33  BANK34  BANK35  BANK36  BANK37
  1768 ;;      Params:         3       0       0       0       0       0       0       0       0       0       0       0       
      +0       0       0       0       0       0       0       0       0       0       0       0       0       0       0       
      +0       0       0       0       0       0       0
  1769 ;;      Locals:         0       0       0       0       0       0       0       0       0       0       0       0       
      +0       0       0       0       0       0       0       0       0       0       0       0       0       0       0       
      +0       0       0       0       0       0       0
  1770 ;;      Temps:          0       0       0       0       0       0       0       0       0       0       0       0       
      +0       0       0       0       0       0       0       0       0       0       0       0       0       0       0       
      +0       0       0       0       0       0       0
  1771 ;;      Totals:         3       0       0       0       0       0       0       0       0       0       0       0       
      +0       0       0       0       0       0       0       0       0       0       0       0       0       0       0       
      +0       0       0       0       0       0       0
  1772 ;;Total ram usage:        3 bytes
  1773 ;; Hardware stack levels used: 1
  1774 ;; Hardware stack levels required when called: 4
  1775 ;; This function calls:
  1776 ;;		Nothing
  1777 ;; This function is called by:
  1778 ;;		_TMR1_Initialize
  1779 ;; This function uses a non-reentrant model
  1780 ;;
  1781                           
  1782                           	psect	text16
  1783  0007DC                     __ptext16:
  1784                           	callstack 0
  1785  0007DC                     _TMR1_SetInterruptHandler:
  1786                           	callstack 121
  1787  0007DC                     
  1788                           ;mcc_generated_files/tmr1.c: 179:     TMR1_InterruptHandler = InterruptHandler;
  1789  0007DC  C537  F528         	movff	TMR1_SetInterruptHandler@InterruptHandler,_TMR1_InterruptHandler
  1790  0007E0  C538  F529         	movff	TMR1_SetInterruptHandler@InterruptHandler+1,_TMR1_InterruptHandler+1
  1791  0007E4  C539  F52A         	movff	TMR1_SetInterruptHandler@InterruptHandler+2,_TMR1_InterruptHandler+2
  1792  0007E8  0012               	return		;funcret
  1793  0007EA                     __end_of_TMR1_SetInterruptHandler:
  1794                           	callstack 0
  1795                           
  1796 ;; *************** function _PMD_Initialize *****************
  1797 ;; Defined at:
  1798 ;;		line 78 in file "mcc_generated_files/mcc.c"
  1799 ;; Parameters:    Size  Location     Type
  1800 ;;		None
  1801 ;; Auto vars:     Size  Location     Type
  1802 ;;		None
  1803 ;; Return value:  Size  Location     Type
  1804 ;;                  1    wreg      void 
  1805 ;; Registers used:
  1806 ;;		wreg, status,2
  1807 ;; Tracked objects:
  1808 ;;		On entry : 0/0
  1809 ;;		On exit  : 0/0
  1810 ;;		Unchanged: 0/0
  1811 ;; Data sizes:     COMRAM   BANK5   BANK6   BANK7   BANK8   BANK9  BANK10  BANK11  BANK12  BANK13  BANK14  BANK15  BANK1
      +6  BANK17  BANK18  BANK19  BANK20  BANK21  BANK22  BANK23  BANK24  BANK25  BANK26  BANK27  BANK28  BANK29  BANK30  BANK3
      +1  BANK32  BANK33  BANK34  BANK35  BANK36  BANK37
  1812 ;;      Params:         0       0       0       0       0       0       0       0       0       0       0       0       
      +0       0       0       0       0       0       0       0       0       0       0       0       0       0       0       
      +0       0       0       0       0       0       0
  1813 ;;      Locals:         0       0       0       0       0       0       0       0       0       0       0       0       
      +0       0       0       0       0       0       0       0       0       0       0       0       0       0       0       
      +0       0       0       0       0       0       0
  1814 ;;      Temps:          0       0       0       0       0       0       0       0       0       0       0       0       
      +0       0       0       0       0       0       0       0       0       0       0       0       0       0       0       
      +0       0       0       0       0       0       0
  1815 ;;      Totals:         0       0       0       0       0       0       0       0       0       0       0       0       
      +0       0       0       0       0       0       0       0       0       0       0       0       0       0       0       
      +0       0       0       0       0       0       0
  1816 ;;Total ram usage:        0 bytes
  1817 ;; Hardware stack levels used: 1
  1818 ;; Hardware stack levels required when called: 4
  1819 ;; This function calls:
  1820 ;;		Nothing
  1821 ;; This function is called by:
  1822 ;;		_SYSTEM_Initialize
  1823 ;; This function uses a non-reentrant model
  1824 ;;
  1825                           
  1826                           	psect	text17
  1827  000708                     __ptext17:
  1828                           	callstack 0
  1829  000708                     _PMD_Initialize:
  1830                           	callstack 122
  1831  000708                     
  1832                           ;mcc_generated_files/mcc.c: 81:     PMD0 = 0x00;
  1833  000708  0E00               	movlw	0
  1834  00070A  0100               	movlb	0	; () banked
  1835  00070C  6F60               	movwf	96,b	;volatile
  1836                           
  1837                           ;mcc_generated_files/mcc.c: 83:     PMD1 = 0x00;
  1838  00070E  0E00               	movlw	0
  1839  000710  6F61               	movwf	97,b	;volatile
  1840                           
  1841                           ;mcc_generated_files/mcc.c: 85:     PMD3 = 0x00;
  1842  000712  0E00               	movlw	0
  1843  000714  6F63               	movwf	99,b	;volatile
  1844                           
  1845                           ;mcc_generated_files/mcc.c: 87:     PMD4 = 0x00;
  1846  000716  0E00               	movlw	0
  1847  000718  6F64               	movwf	100,b	;volatile
  1848                           
  1849                           ;mcc_generated_files/mcc.c: 89:     PMD5 = 0x00;
  1850  00071A  0E00               	movlw	0
  1851  00071C  6F65               	movwf	101,b	;volatile
  1852                           
  1853                           ;mcc_generated_files/mcc.c: 91:     PMD6 = 0x00;
  1854  00071E  0E00               	movlw	0
  1855  000720  6F66               	movwf	102,b	;volatile
  1856                           
  1857                           ;mcc_generated_files/mcc.c: 93:     PMD7 = 0x00;
  1858  000722  0E00               	movlw	0
  1859  000724  6F67               	movwf	103,b	;volatile
  1860                           
  1861                           ;mcc_generated_files/mcc.c: 95:     PMD8 = 0x00;
  1862  000726  0E00               	movlw	0
  1863  000728  6F68               	movwf	104,b	;volatile
  1864  00072A                     
  1865                           ; BSR set to: 0
  1866  00072A  0012               	return		;funcret
  1867  00072C                     __end_of_PMD_Initialize:
  1868                           	callstack 0
  1869                           
  1870 ;; *************** function _PIN_MANAGER_Initialize *****************
  1871 ;; Defined at:
  1872 ;;		line 55 in file "mcc_generated_files/pin_manager.c"
  1873 ;; Parameters:    Size  Location     Type
  1874 ;;		None
  1875 ;; Auto vars:     Size  Location     Type
  1876 ;;		None
  1877 ;; Return value:  Size  Location     Type
  1878 ;;                  1    wreg      void 
  1879 ;; Registers used:
  1880 ;;		wreg, status,2
  1881 ;; Tracked objects:
  1882 ;;		On entry : 0/0
  1883 ;;		On exit  : 0/0
  1884 ;;		Unchanged: 0/0
  1885 ;; Data sizes:     COMRAM   BANK5   BANK6   BANK7   BANK8   BANK9  BANK10  BANK11  BANK12  BANK13  BANK14  BANK15  BANK1
      +6  BANK17  BANK18  BANK19  BANK20  BANK21  BANK22  BANK23  BANK24  BANK25  BANK26  BANK27  BANK28  BANK29  BANK30  BANK3
      +1  BANK32  BANK33  BANK34  BANK35  BANK36  BANK37
  1886 ;;      Params:         0       0       0       0       0       0       0       0       0       0       0       0       
      +0       0       0       0       0       0       0       0       0       0       0       0       0       0       0       
      +0       0       0       0       0       0       0
  1887 ;;      Locals:         0       0       0       0       0       0       0       0       0       0       0       0       
      +0       0       0       0       0       0       0       0       0       0       0       0       0       0       0       
      +0       0       0       0       0       0       0
  1888 ;;      Temps:          0       0       0       0       0       0       0       0       0       0       0       0       
      +0       0       0       0       0       0       0       0       0       0       0       0       0       0       0       
      +0       0       0       0       0       0       0
  1889 ;;      Totals:         0       0       0       0       0       0       0       0       0       0       0       0       
      +0       0       0       0       0       0       0       0       0       0       0       0       0       0       0       
      +0       0       0       0       0       0       0
  1890 ;;Total ram usage:        0 bytes
  1891 ;; Hardware stack levels used: 1
  1892 ;; Hardware stack levels required when called: 4
  1893 ;; This function calls:
  1894 ;;		Nothing
  1895 ;; This function is called by:
  1896 ;;		_SYSTEM_Initialize
  1897 ;; This function uses a non-reentrant model
  1898 ;;
  1899                           
  1900                           	psect	text18
  1901  0003C8                     __ptext18:
  1902                           	callstack 0
  1903  0003C8                     _PIN_MANAGER_Initialize:
  1904                           	callstack 122
  1905  0003C8                     
  1906                           ;mcc_generated_files/pin_manager.c: 60:     LATA = 0x00;
  1907  0003C8  0E00               	movlw	0
  1908  0003CA  6EBE               	movwf	190,c	;volatile
  1909                           
  1910                           ;mcc_generated_files/pin_manager.c: 61:     LATB = 0x00;
  1911  0003CC  0E00               	movlw	0
  1912  0003CE  6EBF               	movwf	191,c	;volatile
  1913                           
  1914                           ;mcc_generated_files/pin_manager.c: 62:     LATC = 0x00;
  1915  0003D0  0E00               	movlw	0
  1916  0003D2  6EC0               	movwf	192,c	;volatile
  1917  0003D4                     
  1918                           ;mcc_generated_files/pin_manager.c: 67:     TRISA = 0xFF;
  1919  0003D4  68C6               	setf	198,c	;volatile
  1920                           
  1921                           ;mcc_generated_files/pin_manager.c: 68:     TRISB = 0xFE;
  1922  0003D6  0EFE               	movlw	254
  1923  0003D8  6EC7               	movwf	199,c	;volatile
  1924                           
  1925                           ;mcc_generated_files/pin_manager.c: 69:     TRISC = 0xBD;
  1926  0003DA  0EBD               	movlw	189
  1927  0003DC  6EC8               	movwf	200,c	;volatile
  1928                           
  1929                           ;mcc_generated_files/pin_manager.c: 74:     ANSELC = 0x7E;
  1930  0003DE  0E7E               	movlw	126
  1931  0003E0  0104               	movlb	4	; () banked
  1932  0003E2  6F10               	movwf	16,b	;volatile
  1933  0003E4                     
  1934                           ; BSR set to: 4
  1935                           ;mcc_generated_files/pin_manager.c: 75:     ANSELB = 0xFF;
  1936  0003E4  6908               	setf	8,b	;volatile
  1937  0003E6                     
  1938                           ; BSR set to: 4
  1939                           ;mcc_generated_files/pin_manager.c: 76:     ANSELA = 0xFF;
  1940  0003E6  6900               	setf	0,b	;volatile
  1941                           
  1942                           ;mcc_generated_files/pin_manager.c: 81:     WPUE = 0x00;
  1943  0003E8  0E00               	movlw	0
  1944  0003EA  6F21               	movwf	33,b	;volatile
  1945                           
  1946                           ;mcc_generated_files/pin_manager.c: 82:     WPUB = 0x00;
  1947  0003EC  0E00               	movlw	0
  1948  0003EE  6F09               	movwf	9,b	;volatile
  1949                           
  1950                           ;mcc_generated_files/pin_manager.c: 83:     WPUA = 0x00;
  1951  0003F0  0E00               	movlw	0
  1952  0003F2  6F01               	movwf	1,b	;volatile
  1953                           
  1954                           ;mcc_generated_files/pin_manager.c: 84:     WPUC = 0x00;
  1955  0003F4  0E00               	movlw	0
  1956  0003F6  6F11               	movwf	17,b	;volatile
  1957                           
  1958                           ;mcc_generated_files/pin_manager.c: 89:     RB1I2C = 0x00;
  1959  0003F8  0E00               	movlw	0
  1960  0003FA  0102               	movlb	2	; () banked
  1961  0003FC  6F89               	movwf	137,b	;volatile
  1962                           
  1963                           ;mcc_generated_files/pin_manager.c: 90:     RB2I2C = 0x00;
  1964  0003FE  0E00               	movlw	0
  1965  000400  6F88               	movwf	136,b	;volatile
  1966                           
  1967                           ;mcc_generated_files/pin_manager.c: 91:     RC3I2C = 0x00;
  1968  000402  0E00               	movlw	0
  1969  000404  6F87               	movwf	135,b	;volatile
  1970                           
  1971                           ;mcc_generated_files/pin_manager.c: 92:     RC4I2C = 0x00;
  1972  000406  0E00               	movlw	0
  1973  000408  6F86               	movwf	134,b	;volatile
  1974                           
  1975                           ;mcc_generated_files/pin_manager.c: 97:     ODCONE = 0x00;
  1976  00040A  0E00               	movlw	0
  1977  00040C  0104               	movlb	4	; () banked
  1978  00040E  6F22               	movwf	34,b	;volatile
  1979                           
  1980                           ;mcc_generated_files/pin_manager.c: 98:     ODCONA = 0x00;
  1981  000410  0E00               	movlw	0
  1982  000412  6F02               	movwf	2,b	;volatile
  1983                           
  1984                           ;mcc_generated_files/pin_manager.c: 99:     ODCONB = 0x00;
  1985  000414  0E00               	movlw	0
  1986  000416  6F0A               	movwf	10,b	;volatile
  1987                           
  1988                           ;mcc_generated_files/pin_manager.c: 100:     ODCONC = 0x00;
  1989  000418  0E00               	movlw	0
  1990  00041A  6F12               	movwf	18,b	;volatile
  1991  00041C                     
  1992                           ; BSR set to: 4
  1993                           ;mcc_generated_files/pin_manager.c: 105:     SLRCONA = 0xFF;
  1994  00041C  6903               	setf	3,b	;volatile
  1995  00041E                     
  1996                           ; BSR set to: 4
  1997                           ;mcc_generated_files/pin_manager.c: 106:     SLRCONB = 0xFF;
  1998  00041E  690B               	setf	11,b	;volatile
  1999  000420                     
  2000                           ; BSR set to: 4
  2001                           ;mcc_generated_files/pin_manager.c: 107:     SLRCONC = 0xFF;
  2002  000420  6913               	setf	19,b	;volatile
  2003  000422                     
  2004                           ; BSR set to: 4
  2005                           ;mcc_generated_files/pin_manager.c: 112:     INLVLA = 0xFF;
  2006  000422  6904               	setf	4,b	;volatile
  2007  000424                     
  2008                           ; BSR set to: 4
  2009                           ;mcc_generated_files/pin_manager.c: 113:     INLVLB = 0xFF;
  2010  000424  690C               	setf	12,b	;volatile
  2011  000426                     
  2012                           ; BSR set to: 4
  2013                           ;mcc_generated_files/pin_manager.c: 114:     INLVLC = 0xFF;
  2014  000426  6914               	setf	20,b	;volatile
  2015                           
  2016                           ;mcc_generated_files/pin_manager.c: 115:     INLVLE = 0x08;
  2017  000428  0E08               	movlw	8
  2018  00042A  6F24               	movwf	36,b	;volatile
  2019                           
  2020                           ;mcc_generated_files/pin_manager.c: 124:     T1CKIPPS = 0x10;
  2021  00042C  0E10               	movlw	16
  2022  00042E  0102               	movlb	2	; () banked
  2023  000430  6F42               	movwf	66,b	;volatile
  2024                           
  2025                           ;mcc_generated_files/pin_manager.c: 125:     RC1PPS = 0x3F;
  2026  000432  0E3F               	movlw	63
  2027  000434  6F12               	movwf	18,b	;volatile
  2028                           
  2029                           ;mcc_generated_files/pin_manager.c: 126:     RC6PPS = 0x20;
  2030  000436  0E20               	movlw	32
  2031  000438  6F17               	movwf	23,b	;volatile
  2032                           
  2033                           ;mcc_generated_files/pin_manager.c: 127:     U1RXPPS = 0x17;
  2034  00043A  0E17               	movlw	23
  2035  00043C  6F72               	movwf	114,b	;volatile
  2036  00043E                     
  2037                           ; BSR set to: 2
  2038  00043E  0012               	return		;funcret
  2039  000440                     __end_of_PIN_MANAGER_Initialize:
  2040                           	callstack 0
  2041                           
  2042 ;; *************** function _OSCILLATOR_Initialize *****************
  2043 ;; Defined at:
  2044 ;;		line 62 in file "mcc_generated_files/mcc.c"
  2045 ;; Parameters:    Size  Location     Type
  2046 ;;		None
  2047 ;; Auto vars:     Size  Location     Type
  2048 ;;		None
  2049 ;; Return value:  Size  Location     Type
  2050 ;;                  1    wreg      void 
  2051 ;; Registers used:
  2052 ;;		wreg, status,2
  2053 ;; Tracked objects:
  2054 ;;		On entry : 0/0
  2055 ;;		On exit  : 0/0
  2056 ;;		Unchanged: 0/0
  2057 ;; Data sizes:     COMRAM   BANK5   BANK6   BANK7   BANK8   BANK9  BANK10  BANK11  BANK12  BANK13  BANK14  BANK15  BANK1
      +6  BANK17  BANK18  BANK19  BANK20  BANK21  BANK22  BANK23  BANK24  BANK25  BANK26  BANK27  BANK28  BANK29  BANK30  BANK3
      +1  BANK32  BANK33  BANK34  BANK35  BANK36  BANK37
  2058 ;;      Params:         0       0       0       0       0       0       0       0       0       0       0       0       
      +0       0       0       0       0       0       0       0       0       0       0       0       0       0       0       
      +0       0       0       0       0       0       0
  2059 ;;      Locals:         0       0       0       0       0       0       0       0       0       0       0       0       
      +0       0       0       0       0       0       0       0       0       0       0       0       0       0       0       
      +0       0       0       0       0       0       0
  2060 ;;      Temps:          0       0       0       0       0       0       0       0       0       0       0       0       
      +0       0       0       0       0       0       0       0       0       0       0       0       0       0       0       
      +0       0       0       0       0       0       0
  2061 ;;      Totals:         0       0       0       0       0       0       0       0       0       0       0       0       
      +0       0       0       0       0       0       0       0       0       0       0       0       0       0       0       
      +0       0       0       0       0       0       0
  2062 ;;Total ram usage:        0 bytes
  2063 ;; Hardware stack levels used: 1
  2064 ;; Hardware stack levels required when called: 4
  2065 ;; This function calls:
  2066 ;;		Nothing
  2067 ;; This function is called by:
  2068 ;;		_SYSTEM_Initialize
  2069 ;; This function uses a non-reentrant model
  2070 ;;
  2071                           
  2072                           	psect	text19
  2073  00074E                     __ptext19:
  2074                           	callstack 0
  2075  00074E                     _OSCILLATOR_Initialize:
  2076                           	callstack 122
  2077  00074E                     
  2078                           ;mcc_generated_files/mcc.c: 65:     OSCCON1 = 0x60;
  2079  00074E  0E60               	movlw	96
  2080  000750  0100               	movlb	0	; () banked
  2081  000752  6FAD               	movwf	173,b	;volatile
  2082                           
  2083                           ;mcc_generated_files/mcc.c: 67:     OSCCON3 = 0x00;
  2084  000754  0E00               	movlw	0
  2085  000756  6FAF               	movwf	175,b	;volatile
  2086                           
  2087                           ;mcc_generated_files/mcc.c: 69:     OSCEN = 0x00;
  2088  000758  0E00               	movlw	0
  2089  00075A  6FB3               	movwf	179,b	;volatile
  2090                           
  2091                           ;mcc_generated_files/mcc.c: 71:     OSCFRQ = 0x08;
  2092  00075C  0E08               	movlw	8
  2093  00075E  6FB1               	movwf	177,b	;volatile
  2094                           
  2095                           ;mcc_generated_files/mcc.c: 73:     OSCTUNE = 0x00;
  2096  000760  0E00               	movlw	0
  2097  000762  6FB0               	movwf	176,b	;volatile
  2098                           
  2099                           ;mcc_generated_files/mcc.c: 75:     ACTCON = 0x00;
  2100  000764  0E00               	movlw	0
  2101  000766  6FAC               	movwf	172,b	;volatile
  2102  000768                     
  2103                           ; BSR set to: 0
  2104  000768  0012               	return		;funcret
  2105  00076A                     __end_of_OSCILLATOR_Initialize:
  2106                           	callstack 0
  2107                           
  2108 ;; *************** function _NCO1_Initialize *****************
  2109 ;; Defined at:
  2110 ;;		line 58 in file "mcc_generated_files/nco1.c"
  2111 ;; Parameters:    Size  Location     Type
  2112 ;;		None
  2113 ;; Auto vars:     Size  Location     Type
  2114 ;;		None
  2115 ;; Return value:  Size  Location     Type
  2116 ;;                  1    wreg      void 
  2117 ;; Registers used:
  2118 ;;		wreg, status,2
  2119 ;; Tracked objects:
  2120 ;;		On entry : 0/0
  2121 ;;		On exit  : 0/0
  2122 ;;		Unchanged: 0/0
  2123 ;; Data sizes:     COMRAM   BANK5   BANK6   BANK7   BANK8   BANK9  BANK10  BANK11  BANK12  BANK13  BANK14  BANK15  BANK1
      +6  BANK17  BANK18  BANK19  BANK20  BANK21  BANK22  BANK23  BANK24  BANK25  BANK26  BANK27  BANK28  BANK29  BANK30  BANK3
      +1  BANK32  BANK33  BANK34  BANK35  BANK36  BANK37
  2124 ;;      Params:         0       0       0       0       0       0       0       0       0       0       0       0       
      +0       0       0       0       0       0       0       0       0       0       0       0       0       0       0       
      +0       0       0       0       0       0       0
  2125 ;;      Locals:         0       0       0       0       0       0       0       0       0       0       0       0       
      +0       0       0       0       0       0       0       0       0       0       0       0       0       0       0       
      +0       0       0       0       0       0       0
  2126 ;;      Temps:          0       0       0       0       0       0       0       0       0       0       0       0       
      +0       0       0       0       0       0       0       0       0       0       0       0       0       0       0       
      +0       0       0       0       0       0       0
  2127 ;;      Totals:         0       0       0       0       0       0       0       0       0       0       0       0       
      +0       0       0       0       0       0       0       0       0       0       0       0       0       0       0       
      +0       0       0       0       0       0       0
  2128 ;;Total ram usage:        0 bytes
  2129 ;; Hardware stack levels used: 1
  2130 ;; Hardware stack levels required when called: 4
  2131 ;; This function calls:
  2132 ;;		Nothing
  2133 ;; This function is called by:
  2134 ;;		_SYSTEM_Initialize
  2135 ;; This function uses a non-reentrant model
  2136 ;;
  2137                           
  2138                           	psect	text20
  2139  0006E2                     __ptext20:
  2140                           	callstack 0
  2141  0006E2                     _NCO1_Initialize:
  2142                           	callstack 122
  2143  0006E2                     
  2144                           ;mcc_generated_files/nco1.c: 62:     NCO1CON = 0x00;
  2145  0006E2  0E00               	movlw	0
  2146  0006E4  0104               	movlb	4	; () banked
  2147  0006E6  6F46               	movwf	70,b	;volatile
  2148                           
  2149                           ;mcc_generated_files/nco1.c: 64:     NCO1CLK = 0x00;
  2150  0006E8  0E00               	movlw	0
  2151  0006EA  6F47               	movwf	71,b	;volatile
  2152                           
  2153                           ;mcc_generated_files/nco1.c: 66:     NCO1ACCU = 0x00;
  2154  0006EC  0E00               	movlw	0
  2155  0006EE  6F42               	movwf	66,b	;volatile
  2156                           
  2157                           ;mcc_generated_files/nco1.c: 68:     NCO1ACCH = 0x00;
  2158  0006F0  0E00               	movlw	0
  2159  0006F2  6F41               	movwf	65,b	;volatile
  2160                           
  2161                           ;mcc_generated_files/nco1.c: 70:     NCO1ACCL = 0x00;
  2162  0006F4  0E00               	movlw	0
  2163  0006F6  6F40               	movwf	64,b	;volatile
  2164                           
  2165                           ;mcc_generated_files/nco1.c: 72:     NCO1INCU = 0x00;
  2166  0006F8  0E00               	movlw	0
  2167  0006FA  6F45               	movwf	69,b	;volatile
  2168                           
  2169                           ;mcc_generated_files/nco1.c: 74:     NCO1INCH = 0x01;
  2170  0006FC  0E01               	movlw	1
  2171  0006FE  6F44               	movwf	68,b	;volatile
  2172                           
  2173                           ;mcc_generated_files/nco1.c: 76:     NCO1INCL = 0x48;
  2174  000700  0E48               	movlw	72
  2175  000702  6F43               	movwf	67,b	;volatile
  2176  000704                     
  2177                           ; BSR set to: 4
  2178                           ;mcc_generated_files/nco1.c: 79:     NCO1CONbits.EN = 1;
  2179  000704  8F46               	bsf	70,7,b	;volatile
  2180  000706                     
  2181                           ; BSR set to: 4
  2182  000706  0012               	return		;funcret
  2183  000708                     __end_of_NCO1_Initialize:
  2184                           	callstack 0
  2185                           
  2186 ;; *************** function _INTERRUPT_Initialize *****************
  2187 ;; Defined at:
  2188 ;;		line 52 in file "mcc_generated_files/interrupt_manager.c"
  2189 ;; Parameters:    Size  Location     Type
  2190 ;;		None
  2191 ;; Auto vars:     Size  Location     Type
  2192 ;;		None
  2193 ;; Return value:  Size  Location     Type
  2194 ;;                  1    wreg      void 
  2195 ;; Registers used:
  2196 ;;		None
  2197 ;; Tracked objects:
  2198 ;;		On entry : 0/0
  2199 ;;		On exit  : 0/0
  2200 ;;		Unchanged: 0/0
  2201 ;; Data sizes:     COMRAM   BANK5   BANK6   BANK7   BANK8   BANK9  BANK10  BANK11  BANK12  BANK13  BANK14  BANK15  BANK1
      +6  BANK17  BANK18  BANK19  BANK20  BANK21  BANK22  BANK23  BANK24  BANK25  BANK26  BANK27  BANK28  BANK29  BANK30  BANK3
      +1  BANK32  BANK33  BANK34  BANK35  BANK36  BANK37
  2202 ;;      Params:         0       0       0       0       0       0       0       0       0       0       0       0       
      +0       0       0       0       0       0       0       0       0       0       0       0       0       0       0       
      +0       0       0       0       0       0       0
  2203 ;;      Locals:         0       0       0       0       0       0       0       0       0       0       0       0       
      +0       0       0       0       0       0       0       0       0       0       0       0       0       0       0       
      +0       0       0       0       0       0       0
  2204 ;;      Temps:          0       0       0       0       0       0       0       0       0       0       0       0       
      +0       0       0       0       0       0       0       0       0       0       0       0       0       0       0       
      +0       0       0       0       0       0       0
  2205 ;;      Totals:         0       0       0       0       0       0       0       0       0       0       0       0       
      +0       0       0       0       0       0       0       0       0       0       0       0       0       0       0       
      +0       0       0       0       0       0       0
  2206 ;;Total ram usage:        0 bytes
  2207 ;; Hardware stack levels used: 1
  2208 ;; Hardware stack levels required when called: 4
  2209 ;; This function calls:
  2210 ;;		Nothing
  2211 ;; This function is called by:
  2212 ;;		_SYSTEM_Initialize
  2213 ;; This function uses a non-reentrant model
  2214 ;;
  2215                           
  2216                           	psect	text21
  2217  000816                     __ptext21:
  2218                           	callstack 0
  2219  000816                     _INTERRUPT_Initialize:
  2220                           	callstack 122
  2221  000816                     
  2222                           ;mcc_generated_files/interrupt_manager.c: 55:     INTCON0bits.IPEN = 0;
  2223  000816  9AD6               	bcf	214,5,c	;volatile
  2224  000818  0012               	return		;funcret
  2225  00081A                     __end_of_INTERRUPT_Initialize:
  2226                           	callstack 0
  2227                           
  2228 ;; *************** function _ADCC_Initialize *****************
  2229 ;; Defined at:
  2230 ;;		line 63 in file "mcc_generated_files/adcc.c"
  2231 ;; Parameters:    Size  Location     Type
  2232 ;;		None
  2233 ;; Auto vars:     Size  Location     Type
  2234 ;;		None
  2235 ;; Return value:  Size  Location     Type
  2236 ;;                  1    wreg      void 
  2237 ;; Registers used:
  2238 ;;		wreg, status,2, status,0, cstack
  2239 ;; Tracked objects:
  2240 ;;		On entry : 0/0
  2241 ;;		On exit  : 0/0
  2242 ;;		Unchanged: 0/0
  2243 ;; Data sizes:     COMRAM   BANK5   BANK6   BANK7   BANK8   BANK9  BANK10  BANK11  BANK12  BANK13  BANK14  BANK15  BANK1
      +6  BANK17  BANK18  BANK19  BANK20  BANK21  BANK22  BANK23  BANK24  BANK25  BANK26  BANK27  BANK28  BANK29  BANK30  BANK3
      +1  BANK32  BANK33  BANK34  BANK35  BANK36  BANK37
  2244 ;;      Params:         0       0       0       0       0       0       0       0       0       0       0       0       
      +0       0       0       0       0       0       0       0       0       0       0       0       0       0       0       
      +0       0       0       0       0       0       0
  2245 ;;      Locals:         0       0       0       0       0       0       0       0       0       0       0       0       
      +0       0       0       0       0       0       0       0       0       0       0       0       0       0       0       
      +0       0       0       0       0       0       0
  2246 ;;      Temps:          0       0       0       0       0       0       0       0       0       0       0       0       
      +0       0       0       0       0       0       0       0       0       0       0       0       0       0       0       
      +0       0       0       0       0       0       0
  2247 ;;      Totals:         0       0       0       0       0       0       0       0       0       0       0       0       
      +0       0       0       0       0       0       0       0       0       0       0       0       0       0       0       
      +0       0       0       0       0       0       0
  2248 ;;Total ram usage:        0 bytes
  2249 ;; Hardware stack levels used: 1
  2250 ;; Hardware stack levels required when called: 5
  2251 ;; This function calls:
  2252 ;;		_ADCC_SetADIInterruptHandler
  2253 ;; This function is called by:
  2254 ;;		_SYSTEM_Initialize
  2255 ;; This function uses a non-reentrant model
  2256 ;;
  2257                           
  2258                           	psect	text22
  2259  000440                     __ptext22:
  2260                           	callstack 0
  2261  000440                     _ADCC_Initialize:
  2262                           	callstack 121
  2263  000440                     
  2264                           ;mcc_generated_files/adcc.c: 67:     ADLTHL = 0x00;
  2265  000440  0E00               	movlw	0
  2266  000442  0103               	movlb	3	; () banked
  2267  000444  6FD9               	movwf	217,b	;volatile
  2268                           
  2269                           ;mcc_generated_files/adcc.c: 69:     ADLTHH = 0x00;
  2270  000446  0E00               	movlw	0
  2271  000448  6FDA               	movwf	218,b	;volatile
  2272                           
  2273                           ;mcc_generated_files/adcc.c: 71:     ADUTHL = 0x00;
  2274  00044A  0E00               	movlw	0
  2275  00044C  6FDB               	movwf	219,b	;volatile
  2276                           
  2277                           ;mcc_generated_files/adcc.c: 73:     ADUTHH = 0x00;
  2278  00044E  0E00               	movlw	0
  2279  000450  6FDC               	movwf	220,b	;volatile
  2280                           
  2281                           ;mcc_generated_files/adcc.c: 75:     ADSTPTL = 0x00;
  2282  000452  0E00               	movlw	0
  2283  000454  6FDF               	movwf	223,b	;volatile
  2284                           
  2285                           ;mcc_generated_files/adcc.c: 77:     ADSTPTH = 0x00;
  2286  000456  0E00               	movlw	0
  2287  000458  6FE0               	movwf	224,b	;volatile
  2288                           
  2289                           ;mcc_generated_files/adcc.c: 79:     ADACCU = 0x00;
  2290  00045A  0E00               	movlw	0
  2291  00045C  6FE5               	movwf	229,b	;volatile
  2292                           
  2293                           ;mcc_generated_files/adcc.c: 81:     ADRPT = 0x00;
  2294  00045E  0E00               	movlw	0
  2295  000460  6FE7               	movwf	231,b	;volatile
  2296                           
  2297                           ;mcc_generated_files/adcc.c: 83:     ADPCH = 0x00;
  2298  000462  0E00               	movlw	0
  2299  000464  6FEC               	movwf	236,b	;volatile
  2300                           
  2301                           ;mcc_generated_files/adcc.c: 85:     ADACQL = 0x08;
  2302  000466  0E08               	movlw	8
  2303  000468  6FEE               	movwf	238,b	;volatile
  2304                           
  2305                           ;mcc_generated_files/adcc.c: 87:     ADACQH = 0x00;
  2306  00046A  0E00               	movlw	0
  2307  00046C  6FEF               	movwf	239,b	;volatile
  2308                           
  2309                           ;mcc_generated_files/adcc.c: 89:     ADCAP = 0x00;
  2310  00046E  0E00               	movlw	0
  2311  000470  6FF0               	movwf	240,b	;volatile
  2312                           
  2313                           ;mcc_generated_files/adcc.c: 91:     ADPREL = 0x00;
  2314  000472  0E00               	movlw	0
  2315  000474  6FF1               	movwf	241,b	;volatile
  2316                           
  2317                           ;mcc_generated_files/adcc.c: 93:     ADPREH = 0x00;
  2318  000476  0E00               	movlw	0
  2319  000478  6FF2               	movwf	242,b	;volatile
  2320                           
  2321                           ;mcc_generated_files/adcc.c: 95:     ADCON1 = 0x01;
  2322  00047A  0E01               	movlw	1
  2323  00047C  6FF4               	movwf	244,b	;volatile
  2324                           
  2325                           ;mcc_generated_files/adcc.c: 97:     ADCON2 = 0x14;
  2326  00047E  0E14               	movlw	20
  2327  000480  6FF5               	movwf	245,b	;volatile
  2328                           
  2329                           ;mcc_generated_files/adcc.c: 99:     ADCON3 = 0x50;
  2330  000482  0E50               	movlw	80
  2331  000484  6FF6               	movwf	246,b	;volatile
  2332                           
  2333                           ;mcc_generated_files/adcc.c: 101:     ADSTAT = 0x00;
  2334  000486  0E00               	movlw	0
  2335  000488  6FF7               	movwf	247,b	;volatile
  2336                           
  2337                           ;mcc_generated_files/adcc.c: 103:     ADREF = 0x02;
  2338  00048A  0E02               	movlw	2
  2339  00048C  6FF8               	movwf	248,b	;volatile
  2340                           
  2341                           ;mcc_generated_files/adcc.c: 105:     ADACT = 0x00;
  2342  00048E  0E00               	movlw	0
  2343  000490  6FF9               	movwf	249,b	;volatile
  2344                           
  2345                           ;mcc_generated_files/adcc.c: 107:     ADCLK = 0x1F;
  2346  000492  0E1F               	movlw	31
  2347  000494  6FFA               	movwf	250,b	;volatile
  2348                           
  2349                           ;mcc_generated_files/adcc.c: 109:     ADCON0 = 0x84;
  2350  000496  0E84               	movlw	132
  2351  000498  6FF3               	movwf	243,b	;volatile
  2352  00049A                     
  2353                           ; BSR set to: 3
  2354                           ;mcc_generated_files/adcc.c: 112:     PIR1bits.ADIF = 0;
  2355  00049A  94AF               	bcf	175,2,c	;volatile
  2356  00049C                     
  2357                           ; BSR set to: 3
  2358                           ;mcc_generated_files/adcc.c: 114:     PIE1bits.ADIE = 1;
  2359  00049C  849F               	bsf	159,2,c	;volatile
  2360  00049E                     
  2361                           ; BSR set to: 3
  2362                           ;mcc_generated_files/adcc.c: 116:     ADCC_SetADIInterruptHandler(ADCC_DefaultInterruptH
      +                          andler);
  2363  00049E  0E1E               	movlw	low _ADCC_DefaultInterruptHandler
  2364  0004A0  6E37               	movwf	ADCC_SetADIInterruptHandler@InterruptHandler^(0+1280),c
  2365  0004A2  0E08               	movlw	high _ADCC_DefaultInterruptHandler
  2366  0004A4  6E38               	movwf	(ADCC_SetADIInterruptHandler@InterruptHandler+1)^(0+1280),c
  2367  0004A6  0E00               	movlw	low (_ADCC_DefaultInterruptHandler shr (0+16))
  2368  0004A8  6E39               	movwf	(ADCC_SetADIInterruptHandler@InterruptHandler+2)^(0+1280),c
  2369  0004AA  ECF5  F003         	call	_ADCC_SetADIInterruptHandler	;wreg free
  2370  0004AE  0012               	return		;funcret
  2371  0004B0                     __end_of_ADCC_Initialize:
  2372                           	callstack 0
  2373                           
  2374 ;; *************** function _ADCC_SetADIInterruptHandler *****************
  2375 ;; Defined at:
  2376 ;;		line 315 in file "mcc_generated_files/adcc.c"
  2377 ;; Parameters:    Size  Location     Type
  2378 ;;  InterruptHan    3    0[COMRAM] PTR FTN()void 
  2379 ;;		 -> ADCC_DefaultInterruptHandler(1), 
  2380 ;; Auto vars:     Size  Location     Type
  2381 ;;		None
  2382 ;; Return value:  Size  Location     Type
  2383 ;;                  1    wreg      void 
  2384 ;; Registers used:
  2385 ;;		wreg, status,2, status,0
  2386 ;; Tracked objects:
  2387 ;;		On entry : 0/0
  2388 ;;		On exit  : 0/0
  2389 ;;		Unchanged: 0/0
  2390 ;; Data sizes:     COMRAM   BANK5   BANK6   BANK7   BANK8   BANK9  BANK10  BANK11  BANK12  BANK13  BANK14  BANK15  BANK1
      +6  BANK17  BANK18  BANK19  BANK20  BANK21  BANK22  BANK23  BANK24  BANK25  BANK26  BANK27  BANK28  BANK29  BANK30  BANK3
      +1  BANK32  BANK33  BANK34  BANK35  BANK36  BANK37
  2391 ;;      Params:         3       0       0       0       0       0       0       0       0       0       0       0       
      +0       0       0       0       0       0       0       0       0       0       0       0       0       0       0       
      +0       0       0       0       0       0       0
  2392 ;;      Locals:         0       0       0       0       0       0       0       0       0       0       0       0       
      +0       0       0       0       0       0       0       0       0       0       0       0       0       0       0       
      +0       0       0       0       0       0       0
  2393 ;;      Temps:          0       0       0       0       0       0       0       0       0       0       0       0       
      +0       0       0       0       0       0       0       0       0       0       0       0       0       0       0       
      +0       0       0       0       0       0       0
  2394 ;;      Totals:         3       0       0       0       0       0       0       0       0       0       0       0       
      +0       0       0       0       0       0       0       0       0       0       0       0       0       0       0       
      +0       0       0       0       0       0       0
  2395 ;;Total ram usage:        3 bytes
  2396 ;; Hardware stack levels used: 1
  2397 ;; Hardware stack levels required when called: 4
  2398 ;; This function calls:
  2399 ;;		Nothing
  2400 ;; This function is called by:
  2401 ;;		_ADCC_Initialize
  2402 ;; This function uses a non-reentrant model
  2403 ;;
  2404                           
  2405                           	psect	text23
  2406  0007EA                     __ptext23:
  2407                           	callstack 0
  2408  0007EA                     _ADCC_SetADIInterruptHandler:
  2409                           	callstack 121
  2410  0007EA                     
  2411                           ;mcc_generated_files/adcc.c: 316:     ADCC_ADI_InterruptHandler = InterruptHandler;
  2412  0007EA  C537  F52B         	movff	ADCC_SetADIInterruptHandler@InterruptHandler,_ADCC_ADI_InterruptHandler
  2413  0007EE  C538  F52C         	movff	ADCC_SetADIInterruptHandler@InterruptHandler+1,_ADCC_ADI_InterruptHandler+1
  2414  0007F2  C539  F52D         	movff	ADCC_SetADIInterruptHandler@InterruptHandler+2,_ADCC_ADI_InterruptHandler+2
  2415  0007F6  0012               	return		;funcret
  2416  0007F8                     __end_of_ADCC_SetADIInterruptHandler:
  2417                           	callstack 0
  2418                           
  2419 ;; *************** function _INTERRUPT_InterruptManager *****************
  2420 ;; Defined at:
  2421 ;;		line 58 in file "mcc_generated_files/interrupt_manager.c"
  2422 ;; Parameters:    Size  Location     Type
  2423 ;;		None
  2424 ;; Auto vars:     Size  Location     Type
  2425 ;;		None
  2426 ;; Return value:  Size  Location     Type
  2427 ;;                  1    wreg      void 
  2428 ;; Registers used:
  2429 ;;		wreg, fsr2l, fsr2h, status,2, status,0, pclath, tosl, cstack
  2430 ;; Tracked objects:
  2431 ;;		On entry : 0/0
  2432 ;;		On exit  : 0/0
  2433 ;;		Unchanged: 0/0
  2434 ;; Data sizes:     COMRAM   BANK5   BANK6   BANK7   BANK8   BANK9  BANK10  BANK11  BANK12  BANK13  BANK14  BANK15  BANK1
      +6  BANK17  BANK18  BANK19  BANK20  BANK21  BANK22  BANK23  BANK24  BANK25  BANK26  BANK27  BANK28  BANK29  BANK30  BANK3
      +1  BANK32  BANK33  BANK34  BANK35  BANK36  BANK37
  2435 ;;      Params:         0       0       0       0       0       0       0       0       0       0       0       0       
      +0       0       0       0       0       0       0       0       0       0       0       0       0       0       0       
      +0       0       0       0       0       0       0
  2436 ;;      Locals:         0       0       0       0       0       0       0       0       0       0       0       0       
      +0       0       0       0       0       0       0       0       0       0       0       0       0       0       0       
      +0       0       0       0       0       0       0
  2437 ;;      Temps:          0       0       0       0       0       0       0       0       0       0       0       0       
      +0       0       0       0       0       0       0       0       0       0       0       0       0       0       0       
      +0       0       0       0       0       0       0
  2438 ;;      Totals:         0       0       0       0       0       0       0       0       0       0       0       0       
      +0       0       0       0       0       0       0       0       0       0       0       0       0       0       0       
      +0       0       0       0       0       0       0
  2439 ;;Total ram usage:        0 bytes
  2440 ;; Hardware stack levels used: 1
  2441 ;; Hardware stack levels required when called: 3
  2442 ;; This function calls:
  2443 ;;		Absolute function
  2444 ;;		_ADCC_ISR
  2445 ;;		_TMR1_ISR
  2446 ;;		_UART1_Receive_ISR
  2447 ;;		_UART1_Transmit_ISR
  2448 ;; This function is called by:
  2449 ;;		Interrupt level 2
  2450 ;; This function uses a non-reentrant model
  2451 ;;
  2452                           
  2453                           	psect	text24
  2454  000258                     __ptext24:
  2455                           	callstack 0
  2456  000258                     _INTERRUPT_InterruptManager:
  2457                           	callstack 121
  2458  000258                     
  2459                           ;mcc_generated_files/interrupt_manager.c: 61:     if(PIE4bits.U1TXIE == 1 && PIR4bits.U1
      +                          TXIF == 1)
  2460  000258  A2A2               	btfss	162,1,c	;volatile
  2461  00025A  EF31  F001         	goto	i2u24_41
  2462  00025E  EF33  F001         	goto	i2u24_40
  2463  000262                     i2u24_41:
  2464  000262  EF49  F001         	goto	i2l157
  2465  000266                     i2u24_40:
  2466  000266  A2B2               	btfss	178,1,c	;volatile
  2467  000268  EF38  F001         	goto	i2u25_41
  2468  00026C  EF3A  F001         	goto	i2u25_40
  2469  000270                     i2u25_41:
  2470  000270  EF49  F001         	goto	i2l157
  2471  000274                     i2u25_40:
  2472  000274                     
  2473                           ;mcc_generated_files/interrupt_manager.c: 62:     {;mcc_generated_files/interrupt_manage
      +                          r.c: 63:         UART1_TxInterruptHandler();
  2474  000274  D802               	call	i2u26_48
  2475  000276  EF47  F001         	goto	i2u26_49
  2476  00027A                     i2u26_48:
  2477  00027A  0005               	push	
  2478  00027C  6EFA               	movwf	pclath,c
  2479  00027E  502E               	movf	_UART1_TxInterruptHandler^(0+1280),w,c
  2480  000280  6EFD               	movwf	tosl,c
  2481  000282  502F               	movf	(_UART1_TxInterruptHandler+1)^(0+1280),w,c
  2482  000284  6EFE               	movwf	tosh,c
  2483  000286  5030               	movf	(_UART1_TxInterruptHandler+2)^(0+1280),w,c
  2484  000288  6EFF               	movwf	tosu,c
  2485  00028A  50FA               	movf	pclath,w,c
  2486  00028C  0012               	return		;indir
  2487  00028E                     i2u26_49:
  2488                           
  2489                           ;mcc_generated_files/interrupt_manager.c: 64:     }
  2490  00028E  EF8A  F001         	goto	i2l165
  2491  000292                     i2l157:
  2492  000292  A0A2               	btfss	162,0,c	;volatile
  2493  000294  EF4E  F001         	goto	i2u27_41
  2494  000298  EF50  F001         	goto	i2u27_40
  2495  00029C                     i2u27_41:
  2496  00029C  EF66  F001         	goto	i2l159
  2497  0002A0                     i2u27_40:
  2498  0002A0  A0B2               	btfss	178,0,c	;volatile
  2499  0002A2  EF55  F001         	goto	i2u28_41
  2500  0002A6  EF57  F001         	goto	i2u28_40
  2501  0002AA                     i2u28_41:
  2502  0002AA  EF66  F001         	goto	i2l159
  2503  0002AE                     i2u28_40:
  2504  0002AE                     
  2505                           ;mcc_generated_files/interrupt_manager.c: 66:     {;mcc_generated_files/interrupt_manage
      +                          r.c: 67:         UART1_RxInterruptHandler();
  2506  0002AE  D802               	call	i2u29_48
  2507  0002B0  EF64  F001         	goto	i2u29_49
  2508  0002B4                     i2u29_48:
  2509  0002B4  0005               	push	
  2510  0002B6  6EFA               	movwf	pclath,c
  2511  0002B8  5031               	movf	_UART1_RxInterruptHandler^(0+1280),w,c
  2512  0002BA  6EFD               	movwf	tosl,c
  2513  0002BC  5032               	movf	(_UART1_RxInterruptHandler+1)^(0+1280),w,c
  2514  0002BE  6EFE               	movwf	tosh,c
  2515  0002C0  5033               	movf	(_UART1_RxInterruptHandler+2)^(0+1280),w,c
  2516  0002C2  6EFF               	movwf	tosu,c
  2517  0002C4  50FA               	movf	pclath,w,c
  2518  0002C6  0012               	return		;indir
  2519  0002C8                     i2u29_49:
  2520                           
  2521                           ;mcc_generated_files/interrupt_manager.c: 68:     }
  2522  0002C8  EF8A  F001         	goto	i2l165
  2523  0002CC                     i2l159:
  2524  0002CC  A49F               	btfss	159,2,c	;volatile
  2525  0002CE  EF6B  F001         	goto	i2u30_41
  2526  0002D2  EF6D  F001         	goto	i2u30_40
  2527  0002D6                     i2u30_41:
  2528  0002D6  EF78  F001         	goto	i2l161
  2529  0002DA                     i2u30_40:
  2530  0002DA  A4AF               	btfss	175,2,c	;volatile
  2531  0002DC  EF72  F001         	goto	i2u31_41
  2532  0002E0  EF74  F001         	goto	i2u31_40
  2533  0002E4                     i2u31_41:
  2534  0002E4  EF78  F001         	goto	i2l161
  2535  0002E8                     i2u31_40:
  2536  0002E8                     
  2537                           ;mcc_generated_files/interrupt_manager.c: 70:     {;mcc_generated_files/interrupt_manage
      +                          r.c: 71:         ADCC_ISR();
  2538  0002E8  EC2C  F003         	call	_ADCC_ISR	;wreg free
  2539                           
  2540                           ;mcc_generated_files/interrupt_manager.c: 72:     }
  2541  0002EC  EF8A  F001         	goto	i2l165
  2542  0002F0                     i2l161:
  2543  0002F0  A8A1               	btfss	161,4,c	;volatile
  2544  0002F2  EF7D  F001         	goto	i2u32_41
  2545  0002F6  EF7F  F001         	goto	i2u32_40
  2546  0002FA                     i2u32_41:
  2547  0002FA  EF8A  F001         	goto	i2l160
  2548  0002FE                     i2u32_40:
  2549  0002FE  A8B1               	btfss	177,4,c	;volatile
  2550  000300  EF84  F001         	goto	i2u33_41
  2551  000304  EF86  F001         	goto	i2u33_40
  2552  000308                     i2u33_41:
  2553  000308  EF8A  F001         	goto	i2l160
  2554  00030C                     i2u33_40:
  2555  00030C                     
  2556                           ;mcc_generated_files/interrupt_manager.c: 74:     {;mcc_generated_files/interrupt_manage
      +                          r.c: 75:         TMR1_ISR();
  2557  00030C  EC13  F003         	call	_TMR1_ISR	;wreg free
  2558                           
  2559                           ;mcc_generated_files/interrupt_manager.c: 76:     }
  2560  000310  EF8A  F001         	goto	i2l165
  2561  000314                     i2l160:
  2562  000314                     i2l165:
  2563  000314  0011               	retfie		f
  2564  000316                     __end_of_INTERRUPT_InterruptManager:
  2565                           	callstack 0
  2566                           
  2567 ;; *************** function _UART1_Transmit_ISR *****************
  2568 ;; Defined at:
  2569 ;;		line 238 in file "mcc_generated_files/uart1.c"
  2570 ;; Parameters:    Size  Location     Type
  2571 ;;		None
  2572 ;; Auto vars:     Size  Location     Type
  2573 ;;		None
  2574 ;; Return value:  Size  Location     Type
  2575 ;;                  1    wreg      void 
  2576 ;; Registers used:
  2577 ;;		wreg, fsr2l, fsr2h, status,2, status,0
  2578 ;; Tracked objects:
  2579 ;;		On entry : 0/0
  2580 ;;		On exit  : 0/0
  2581 ;;		Unchanged: 0/0
  2582 ;; Data sizes:     COMRAM   BANK5   BANK6   BANK7   BANK8   BANK9  BANK10  BANK11  BANK12  BANK13  BANK14  BANK15  BANK1
      +6  BANK17  BANK18  BANK19  BANK20  BANK21  BANK22  BANK23  BANK24  BANK25  BANK26  BANK27  BANK28  BANK29  BANK30  BANK3
      +1  BANK32  BANK33  BANK34  BANK35  BANK36  BANK37
  2583 ;;      Params:         0       0       0       0       0       0       0       0       0       0       0       0       
      +0       0       0       0       0       0       0       0       0       0       0       0       0       0       0       
      +0       0       0       0       0       0       0
  2584 ;;      Locals:         0       0       0       0       0       0       0       0       0       0       0       0       
      +0       0       0       0       0       0       0       0       0       0       0       0       0       0       0       
      +0       0       0       0       0       0       0
  2585 ;;      Temps:          0       0       0       0       0       0       0       0       0       0       0       0       
      +0       0       0       0       0       0       0       0       0       0       0       0       0       0       0       
      +0       0       0       0       0       0       0
  2586 ;;      Totals:         0       0       0       0       0       0       0       0       0       0       0       0       
      +0       0       0       0       0       0       0       0       0       0       0       0       0       0       0       
      +0       0       0       0       0       0       0
  2587 ;;Total ram usage:        0 bytes
  2588 ;; Hardware stack levels used: 1
  2589 ;; This function calls:
  2590 ;;		Nothing
  2591 ;; This function is called by:
  2592 ;;		_UART1_Initialize
  2593 ;;		_INTERRUPT_InterruptManager
  2594 ;; This function uses a non-reentrant model
  2595 ;;
  2596                           
  2597                           	psect	text25
  2598  0005A4                     __ptext25:
  2599                           	callstack 0
  2600  0005A4                     _UART1_Transmit_ISR:
  2601                           	callstack 123
  2602  0005A4                     
  2603                           ;mcc_generated_files/uart1.c: 241:     if(sizeof(uart1TxBuffer) > uart1TxBufferRemaining
      +                          )
  2604  0005A4  0E08               	movlw	8
  2605  0005A6  6036               	cpfslt	_uart1TxBufferRemaining^(0+1280),c	;volatile
  2606  0005A8  EFD8  F002         	goto	i2u16_41
  2607  0005AC  EFDA  F002         	goto	i2u16_40
  2608  0005B0                     i2u16_41:
  2609  0005B0  EFF1  F002         	goto	i2l565
  2610  0005B4                     i2u16_40:
  2611  0005B4                     
  2612                           ;mcc_generated_files/uart1.c: 242:     {;mcc_generated_files/uart1.c: 243:         U1TXB
      +                           = uart1TxBuffer[uart1TxTail++];
  2613  0005B4  0E11               	movlw	low _uart1TxBuffer
  2614  0005B6  241D               	addwf	_uart1TxTail^(0+1280),w,c	;volatile
  2615  0005B8  6ED9               	movwf	fsr2l,c
  2616  0005BA  6ADA               	clrf	fsr2h,c
  2617  0005BC  0E05               	movlw	high _uart1TxBuffer
  2618  0005BE  22DA               	addwfc	fsr2h,f,c
  2619  0005C0  50DF               	movf	indf2,w,c
  2620  0005C2  0102               	movlb	2	; () banked
  2621  0005C4  6FA3               	movwf	163,b	;volatile
  2622  0005C6                     
  2623                           ; BSR set to: 2
  2624  0005C6  2A1D               	incf	_uart1TxTail^(0+1280),f,c	;volatile
  2625  0005C8                     
  2626                           ; BSR set to: 2
  2627                           ;mcc_generated_files/uart1.c: 244:        if(sizeof(uart1TxBuffer) <= uart1TxTail)
  2628  0005C8  0E07               	movlw	7
  2629  0005CA  641D               	cpfsgt	_uart1TxTail^(0+1280),c	;volatile
  2630  0005CC  EFEA  F002         	goto	i2u17_41
  2631  0005D0  EFEC  F002         	goto	i2u17_40
  2632  0005D4                     i2u17_41:
  2633  0005D4  EFEE  F002         	goto	i2l1561
  2634  0005D8                     i2u17_40:
  2635  0005D8                     
  2636                           ; BSR set to: 2
  2637                           ;mcc_generated_files/uart1.c: 245:         {;mcc_generated_files/uart1.c: 246:          
      +                             uart1TxTail = 0;
  2638  0005D8  0E00               	movlw	0
  2639  0005DA  6E1D               	movwf	_uart1TxTail^(0+1280),c	;volatile
  2640  0005DC                     i2l1561:
  2641                           
  2642                           ; BSR set to: 2
  2643                           ;mcc_generated_files/uart1.c: 248:         uart1TxBufferRemaining++;
  2644  0005DC  2A36               	incf	_uart1TxBufferRemaining^(0+1280),f,c	;volatile
  2645                           
  2646                           ;mcc_generated_files/uart1.c: 249:     }
  2647  0005DE  EFF2  F002         	goto	i2l568
  2648  0005E2                     i2l565:
  2649                           
  2650                           ;mcc_generated_files/uart1.c: 251:     {;mcc_generated_files/uart1.c: 252:         PIE4b
      +                          its.U1TXIE = 0;
  2651  0005E2  92A2               	bcf	162,1,c	;volatile
  2652  0005E4                     i2l568:
  2653  0005E4  0012               	return		;funcret
  2654  0005E6                     __end_of_UART1_Transmit_ISR:
  2655                           	callstack 0
  2656                           
  2657 ;; *************** function _UART1_Receive_ISR *****************
  2658 ;; Defined at:
  2659 ;;		line 258 in file "mcc_generated_files/uart1.c"
  2660 ;; Parameters:    Size  Location     Type
  2661 ;;		None
  2662 ;; Auto vars:     Size  Location     Type
  2663 ;;		None
  2664 ;; Return value:  Size  Location     Type
  2665 ;;                  1    wreg      void 
  2666 ;; Registers used:
  2667 ;;		wreg, fsr2l, fsr2h, status,2, status,0, pclath, tosl, cstack
  2668 ;; Tracked objects:
  2669 ;;		On entry : 0/0
  2670 ;;		On exit  : 0/0
  2671 ;;		Unchanged: 0/0
  2672 ;; Data sizes:     COMRAM   BANK5   BANK6   BANK7   BANK8   BANK9  BANK10  BANK11  BANK12  BANK13  BANK14  BANK15  BANK1
      +6  BANK17  BANK18  BANK19  BANK20  BANK21  BANK22  BANK23  BANK24  BANK25  BANK26  BANK27  BANK28  BANK29  BANK30  BANK3
      +1  BANK32  BANK33  BANK34  BANK35  BANK36  BANK37
  2673 ;;      Params:         0       0       0       0       0       0       0       0       0       0       0       0       
      +0       0       0       0       0       0       0       0       0       0       0       0       0       0       0       
      +0       0       0       0       0       0       0
  2674 ;;      Locals:         0       0       0       0       0       0       0       0       0       0       0       0       
      +0       0       0       0       0       0       0       0       0       0       0       0       0       0       0       
      +0       0       0       0       0       0       0
  2675 ;;      Temps:          0       0       0       0       0       0       0       0       0       0       0       0       
      +0       0       0       0       0       0       0       0       0       0       0       0       0       0       0       
      +0       0       0       0       0       0       0
  2676 ;;      Totals:         0       0       0       0       0       0       0       0       0       0       0       0       
      +0       0       0       0       0       0       0       0       0       0       0       0       0       0       0       
      +0       0       0       0       0       0       0
  2677 ;;Total ram usage:        0 bytes
  2678 ;; Hardware stack levels used: 1
  2679 ;; Hardware stack levels required when called: 2
  2680 ;; This function calls:
  2681 ;;		Absolute function
  2682 ;;		_UART1_DefaultErrorHandler
  2683 ;;		_UART1_DefaultFramingErrorHandler
  2684 ;;		_UART1_DefaultOverrunErrorHandler
  2685 ;;		_UART1_RxDataHandler
  2686 ;; This function is called by:
  2687 ;;		_UART1_Initialize
  2688 ;;		_INTERRUPT_InterruptManager
  2689 ;; This function uses a non-reentrant model
  2690 ;;
  2691                           
  2692                           	psect	text26
  2693  000198                     __ptext26:
  2694                           	callstack 0
  2695  000198                     _UART1_Receive_ISR:
  2696                           	callstack 121
  2697  000198                     
  2698                           ;mcc_generated_files/uart1.c: 261:     uart1RxStatusBuffer[uart1RxHead].status = 0;
  2699  000198  0E01               	movlw	low _uart1RxStatusBuffer
  2700  00019A  241C               	addwf	_uart1RxHead^(0+1280),w,c	;volatile
  2701  00019C  6ED9               	movwf	fsr2l,c
  2702  00019E  6ADA               	clrf	fsr2h,c
  2703  0001A0  0E05               	movlw	high _uart1RxStatusBuffer
  2704  0001A2  22DA               	addwfc	fsr2h,f,c
  2705  0001A4  0E00               	movlw	0
  2706  0001A6  6EDF               	movwf	indf2,c
  2707  0001A8                     
  2708                           ;mcc_generated_files/uart1.c: 263:     if(U1ERRIRbits.FERIF){
  2709  0001A8  0102               	movlb	2	; () banked
  2710  0001AA  A7B2               	btfss	178,3,b	;volatile
  2711  0001AC  EFDA  F000         	goto	i2u18_41
  2712  0001B0  EFDC  F000         	goto	i2u18_40
  2713  0001B4                     i2u18_41:
  2714  0001B4  EFF0  F000         	goto	i2l1571
  2715  0001B8                     i2u18_40:
  2716  0001B8                     
  2717                           ; BSR set to: 2
  2718                           ;mcc_generated_files/uart1.c: 264:         uart1RxStatusBuffer[uart1RxHead].ferr = 1;
  2719  0001B8  0E01               	movlw	low _uart1RxStatusBuffer
  2720  0001BA  241C               	addwf	_uart1RxHead^(0+1280),w,c	;volatile
  2721  0001BC  6ED9               	movwf	fsr2l,c
  2722  0001BE  6ADA               	clrf	fsr2h,c
  2723  0001C0  0E05               	movlw	high _uart1RxStatusBuffer
  2724  0001C2  22DA               	addwfc	fsr2h,f,c
  2725  0001C4  82DF               	bsf	indf2,1,c
  2726  0001C6                     
  2727                           ; BSR set to: 2
  2728                           ;mcc_generated_files/uart1.c: 265:         UART1_FramingErrorHandler();
  2729  0001C6  D802               	call	i2u19_48
  2730  0001C8  EFF0  F000         	goto	i2u19_49
  2731  0001CC                     i2u19_48:
  2732  0001CC  0005               	push	
  2733  0001CE  6EFA               	movwf	pclath,c
  2734  0001D0  5025               	movf	_UART1_FramingErrorHandler^(0+1280),w,c
  2735  0001D2  6EFD               	movwf	tosl,c
  2736  0001D4  5026               	movf	(_UART1_FramingErrorHandler+1)^(0+1280),w,c
  2737  0001D6  6EFE               	movwf	tosh,c
  2738  0001D8  5027               	movf	(_UART1_FramingErrorHandler+2)^(0+1280),w,c
  2739  0001DA  6EFF               	movwf	tosu,c
  2740  0001DC  50FA               	movf	pclath,w,c
  2741  0001DE  0012               	return		;indir
  2742  0001E0                     i2u19_49:
  2743  0001E0                     i2l1571:
  2744                           
  2745                           ;mcc_generated_files/uart1.c: 268:     if(U1ERRIRbits.RXFOIF){
  2746  0001E0  0102               	movlb	2	; () banked
  2747  0001E2  A3B2               	btfss	178,1,b	;volatile
  2748  0001E4  EFF6  F000         	goto	i2u20_41
  2749  0001E8  EFF8  F000         	goto	i2u20_40
  2750  0001EC                     i2u20_41:
  2751  0001EC  EF0C  F001         	goto	i2l1577
  2752  0001F0                     i2u20_40:
  2753  0001F0                     
  2754                           ; BSR set to: 2
  2755                           ;mcc_generated_files/uart1.c: 269:         uart1RxStatusBuffer[uart1RxHead].oerr = 1;
  2756  0001F0  0E01               	movlw	low _uart1RxStatusBuffer
  2757  0001F2  241C               	addwf	_uart1RxHead^(0+1280),w,c	;volatile
  2758  0001F4  6ED9               	movwf	fsr2l,c
  2759  0001F6  6ADA               	clrf	fsr2h,c
  2760  0001F8  0E05               	movlw	high _uart1RxStatusBuffer
  2761  0001FA  22DA               	addwfc	fsr2h,f,c
  2762  0001FC  84DF               	bsf	indf2,2,c
  2763  0001FE                     
  2764                           ; BSR set to: 2
  2765                           ;mcc_generated_files/uart1.c: 270:         UART1_OverrunErrorHandler();
  2766  0001FE  D802               	call	i2u21_48
  2767  000200  EF0C  F001         	goto	i2u21_49
  2768  000204                     i2u21_48:
  2769  000204  0005               	push	
  2770  000206  6EFA               	movwf	pclath,c
  2771  000208  5022               	movf	_UART1_OverrunErrorHandler^(0+1280),w,c
  2772  00020A  6EFD               	movwf	tosl,c
  2773  00020C  5023               	movf	(_UART1_OverrunErrorHandler+1)^(0+1280),w,c
  2774  00020E  6EFE               	movwf	tosh,c
  2775  000210  5024               	movf	(_UART1_OverrunErrorHandler+2)^(0+1280),w,c
  2776  000212  6EFF               	movwf	tosu,c
  2777  000214  50FA               	movf	pclath,w,c
  2778  000216  0012               	return		;indir
  2779  000218                     i2u21_49:
  2780  000218                     i2l1577:
  2781                           
  2782                           ;mcc_generated_files/uart1.c: 273:     if(uart1RxStatusBuffer[uart1RxHead].status){
  2783  000218  0E01               	movlw	low _uart1RxStatusBuffer
  2784  00021A  241C               	addwf	_uart1RxHead^(0+1280),w,c	;volatile
  2785  00021C  6ED9               	movwf	fsr2l,c
  2786  00021E  6ADA               	clrf	fsr2h,c
  2787  000220  0E05               	movlw	high _uart1RxStatusBuffer
  2788  000222  22DA               	addwfc	fsr2h,f,c
  2789  000224  50DF               	movf	indf2,w,c
  2790  000226  B4D8               	btfsc	status,2,c
  2791  000228  EF18  F001         	goto	i2u22_41
  2792  00022C  EF1A  F001         	goto	i2u22_40
  2793  000230                     i2u22_41:
  2794  000230  EF29  F001         	goto	i2l1581
  2795  000234                     i2u22_40:
  2796  000234                     
  2797                           ;mcc_generated_files/uart1.c: 274:         UART1_ErrorHandler();
  2798  000234  D802               	call	i2u23_48
  2799  000236  EF27  F001         	goto	i2u23_49
  2800  00023A                     i2u23_48:
  2801  00023A  0005               	push	
  2802  00023C  6EFA               	movwf	pclath,c
  2803  00023E  501F               	movf	_UART1_ErrorHandler^(0+1280),w,c
  2804  000240  6EFD               	movwf	tosl,c
  2805  000242  5020               	movf	(_UART1_ErrorHandler+1)^(0+1280),w,c
  2806  000244  6EFE               	movwf	tosh,c
  2807  000246  5021               	movf	(_UART1_ErrorHandler+2)^(0+1280),w,c
  2808  000248  6EFF               	movwf	tosu,c
  2809  00024A  50FA               	movf	pclath,w,c
  2810  00024C  0012               	return		;indir
  2811  00024E                     i2u23_49:
  2812                           
  2813                           ;mcc_generated_files/uart1.c: 275:     } else {
  2814  00024E  EF2B  F001         	goto	i2l575
  2815  000252                     i2l1581:
  2816                           
  2817                           ;mcc_generated_files/uart1.c: 276:         UART1_RxDataHandler();
  2818  000252  EC5C  F003         	call	_UART1_RxDataHandler	;wreg free
  2819  000256                     i2l575:
  2820  000256  0012               	return		;funcret
  2821  000258                     __end_of_UART1_Receive_ISR:
  2822                           	callstack 0
  2823                           
  2824 ;; *************** function _UART1_DefaultOverrunErrorHandler *****************
  2825 ;; Defined at:
  2826 ;;		line 294 in file "mcc_generated_files/uart1.c"
  2827 ;; Parameters:    Size  Location     Type
  2828 ;;		None
  2829 ;; Auto vars:     Size  Location     Type
  2830 ;;		None
  2831 ;; Return value:  Size  Location     Type
  2832 ;;                  1    wreg      void 
  2833 ;; Registers used:
  2834 ;;		None
  2835 ;; Tracked objects:
  2836 ;;		On entry : 0/0
  2837 ;;		On exit  : 0/0
  2838 ;;		Unchanged: 0/0
  2839 ;; Data sizes:     COMRAM   BANK5   BANK6   BANK7   BANK8   BANK9  BANK10  BANK11  BANK12  BANK13  BANK14  BANK15  BANK1
      +6  BANK17  BANK18  BANK19  BANK20  BANK21  BANK22  BANK23  BANK24  BANK25  BANK26  BANK27  BANK28  BANK29  BANK30  BANK3
      +1  BANK32  BANK33  BANK34  BANK35  BANK36  BANK37
  2840 ;;      Params:         0       0       0       0       0       0       0       0       0       0       0       0       
      +0       0       0       0       0       0       0       0       0       0       0       0       0       0       0       
      +0       0       0       0       0       0       0
  2841 ;;      Locals:         0       0       0       0       0       0       0       0       0       0       0       0       
      +0       0       0       0       0       0       0       0       0       0       0       0       0       0       0       
      +0       0       0       0       0       0       0
  2842 ;;      Temps:          0       0       0       0       0       0       0       0       0       0       0       0       
      +0       0       0       0       0       0       0       0       0       0       0       0       0       0       0       
      +0       0       0       0       0       0       0
  2843 ;;      Totals:         0       0       0       0       0       0       0       0       0       0       0       0       
      +0       0       0       0       0       0       0       0       0       0       0       0       0       0       0       
      +0       0       0       0       0       0       0
  2844 ;;Total ram usage:        0 bytes
  2845 ;; Hardware stack levels used: 1
  2846 ;; This function calls:
  2847 ;;		Nothing
  2848 ;; This function is called by:
  2849 ;;		_UART1_Initialize
  2850 ;;		_UART1_Receive_ISR
  2851 ;; This function uses a non-reentrant model
  2852 ;;
  2853                           
  2854                           	psect	text27
  2855  00081A                     __ptext27:
  2856                           	callstack 0
  2857  00081A                     _UART1_DefaultOverrunErrorHandler:
  2858                           	callstack 122
  2859  00081A  0012               	return		;funcret
  2860  00081C                     __end_of_UART1_DefaultOverrunErrorHandler:
  2861                           	callstack 0
  2862                           
  2863 ;; *************** function _UART1_DefaultFramingErrorHandler *****************
  2864 ;; Defined at:
  2865 ;;		line 292 in file "mcc_generated_files/uart1.c"
  2866 ;; Parameters:    Size  Location     Type
  2867 ;;		None
  2868 ;; Auto vars:     Size  Location     Type
  2869 ;;		None
  2870 ;; Return value:  Size  Location     Type
  2871 ;;                  1    wreg      void 
  2872 ;; Registers used:
  2873 ;;		None
  2874 ;; Tracked objects:
  2875 ;;		On entry : 0/0
  2876 ;;		On exit  : 0/0
  2877 ;;		Unchanged: 0/0
  2878 ;; Data sizes:     COMRAM   BANK5   BANK6   BANK7   BANK8   BANK9  BANK10  BANK11  BANK12  BANK13  BANK14  BANK15  BANK1
      +6  BANK17  BANK18  BANK19  BANK20  BANK21  BANK22  BANK23  BANK24  BANK25  BANK26  BANK27  BANK28  BANK29  BANK30  BANK3
      +1  BANK32  BANK33  BANK34  BANK35  BANK36  BANK37
  2879 ;;      Params:         0       0       0       0       0       0       0       0       0       0       0       0       
      +0       0       0       0       0       0       0       0       0       0       0       0       0       0       0       
      +0       0       0       0       0       0       0
  2880 ;;      Locals:         0       0       0       0       0       0       0       0       0       0       0       0       
      +0       0       0       0       0       0       0       0       0       0       0       0       0       0       0       
      +0       0       0       0       0       0       0
  2881 ;;      Temps:          0       0       0       0       0       0       0       0       0       0       0       0       
      +0       0       0       0       0       0       0       0       0       0       0       0       0       0       0       
      +0       0       0       0       0       0       0
  2882 ;;      Totals:         0       0       0       0       0       0       0       0       0       0       0       0       
      +0       0       0       0       0       0       0       0       0       0       0       0       0       0       0       
      +0       0       0       0       0       0       0
  2883 ;;Total ram usage:        0 bytes
  2884 ;; Hardware stack levels used: 1
  2885 ;; This function calls:
  2886 ;;		Nothing
  2887 ;; This function is called by:
  2888 ;;		_UART1_Initialize
  2889 ;;		_UART1_Receive_ISR
  2890 ;; This function uses a non-reentrant model
  2891 ;;
  2892                           
  2893                           	psect	text28
  2894  00081C                     __ptext28:
  2895                           	callstack 0
  2896  00081C                     _UART1_DefaultFramingErrorHandler:
  2897                           	callstack 122
  2898  00081C  0012               	return		;funcret
  2899  00081E                     __end_of_UART1_DefaultFramingErrorHandler:
  2900                           	callstack 0
  2901                           
  2902 ;; *************** function _UART1_DefaultErrorHandler *****************
  2903 ;; Defined at:
  2904 ;;		line 296 in file "mcc_generated_files/uart1.c"
  2905 ;; Parameters:    Size  Location     Type
  2906 ;;		None
  2907 ;; Auto vars:     Size  Location     Type
  2908 ;;		None
  2909 ;; Return value:  Size  Location     Type
  2910 ;;                  1    wreg      void 
  2911 ;; Registers used:
  2912 ;;		wreg, fsr2l, fsr2h, status,2, status,0, cstack
  2913 ;; Tracked objects:
  2914 ;;		On entry : 0/0
  2915 ;;		On exit  : 0/0
  2916 ;;		Unchanged: 0/0
  2917 ;; Data sizes:     COMRAM   BANK5   BANK6   BANK7   BANK8   BANK9  BANK10  BANK11  BANK12  BANK13  BANK14  BANK15  BANK1
      +6  BANK17  BANK18  BANK19  BANK20  BANK21  BANK22  BANK23  BANK24  BANK25  BANK26  BANK27  BANK28  BANK29  BANK30  BANK3
      +1  BANK32  BANK33  BANK34  BANK35  BANK36  BANK37
  2918 ;;      Params:         0       0       0       0       0       0       0       0       0       0       0       0       
      +0       0       0       0       0       0       0       0       0       0       0       0       0       0       0       
      +0       0       0       0       0       0       0
  2919 ;;      Locals:         0       0       0       0       0       0       0       0       0       0       0       0       
      +0       0       0       0       0       0       0       0       0       0       0       0       0       0       0       
      +0       0       0       0       0       0       0
  2920 ;;      Temps:          0       0       0       0       0       0       0       0       0       0       0       0       
      +0       0       0       0       0       0       0       0       0       0       0       0       0       0       0       
      +0       0       0       0       0       0       0
  2921 ;;      Totals:         0       0       0       0       0       0       0       0       0       0       0       0       
      +0       0       0       0       0       0       0       0       0       0       0       0       0       0       0       
      +0       0       0       0       0       0       0
  2922 ;;Total ram usage:        0 bytes
  2923 ;; Hardware stack levels used: 1
  2924 ;; Hardware stack levels required when called: 1
  2925 ;; This function calls:
  2926 ;;		_UART1_RxDataHandler
  2927 ;; This function is called by:
  2928 ;;		_UART1_Initialize
  2929 ;;		_UART1_Receive_ISR
  2930 ;; This function uses a non-reentrant model
  2931 ;;
  2932                           
  2933                           	psect	text29
  2934  00080A                     __ptext29:
  2935                           	callstack 0
  2936  00080A                     _UART1_DefaultErrorHandler:
  2937                           	callstack 121
  2938  00080A                     
  2939                           ;mcc_generated_files/uart1.c: 297:     UART1_RxDataHandler();
  2940  00080A  EC5C  F003         	call	_UART1_RxDataHandler	;wreg free
  2941  00080E  0012               	return		;funcret
  2942  000810                     __end_of_UART1_DefaultErrorHandler:
  2943                           	callstack 0
  2944                           
  2945 ;; *************** function _UART1_RxDataHandler *****************
  2946 ;; Defined at:
  2947 ;;		line 282 in file "mcc_generated_files/uart1.c"
  2948 ;; Parameters:    Size  Location     Type
  2949 ;;		None
  2950 ;; Auto vars:     Size  Location     Type
  2951 ;;		None
  2952 ;; Return value:  Size  Location     Type
  2953 ;;                  1    wreg      void 
  2954 ;; Registers used:
  2955 ;;		wreg, fsr2l, fsr2h, status,2, status,0
  2956 ;; Tracked objects:
  2957 ;;		On entry : 0/0
  2958 ;;		On exit  : 0/0
  2959 ;;		Unchanged: 0/0
  2960 ;; Data sizes:     COMRAM   BANK5   BANK6   BANK7   BANK8   BANK9  BANK10  BANK11  BANK12  BANK13  BANK14  BANK15  BANK1
      +6  BANK17  BANK18  BANK19  BANK20  BANK21  BANK22  BANK23  BANK24  BANK25  BANK26  BANK27  BANK28  BANK29  BANK30  BANK3
      +1  BANK32  BANK33  BANK34  BANK35  BANK36  BANK37
  2961 ;;      Params:         0       0       0       0       0       0       0       0       0       0       0       0       
      +0       0       0       0       0       0       0       0       0       0       0       0       0       0       0       
      +0       0       0       0       0       0       0
  2962 ;;      Locals:         0       0       0       0       0       0       0       0       0       0       0       0       
      +0       0       0       0       0       0       0       0       0       0       0       0       0       0       0       
      +0       0       0       0       0       0       0
  2963 ;;      Temps:          0       0       0       0       0       0       0       0       0       0       0       0       
      +0       0       0       0       0       0       0       0       0       0       0       0       0       0       0       
      +0       0       0       0       0       0       0
  2964 ;;      Totals:         0       0       0       0       0       0       0       0       0       0       0       0       
      +0       0       0       0       0       0       0       0       0       0       0       0       0       0       0       
      +0       0       0       0       0       0       0
  2965 ;;Total ram usage:        0 bytes
  2966 ;; Hardware stack levels used: 1
  2967 ;; This function calls:
  2968 ;;		Nothing
  2969 ;; This function is called by:
  2970 ;;		_UART1_Receive_ISR
  2971 ;;		_UART1_DefaultErrorHandler
  2972 ;; This function uses a non-reentrant model
  2973 ;;
  2974                           
  2975                           	psect	text30
  2976  0006B8                     __ptext30:
  2977                           	callstack 0
  2978  0006B8                     _UART1_RxDataHandler:
  2979                           	callstack 122
  2980  0006B8                     
  2981                           ;mcc_generated_files/uart1.c: 284:     uart1RxBuffer[uart1RxHead++] = U1RXB;
  2982  0006B8  0E09               	movlw	low _uart1RxBuffer
  2983  0006BA  241C               	addwf	_uart1RxHead^(0+1280),w,c	;volatile
  2984  0006BC  6ED9               	movwf	fsr2l,c
  2985  0006BE  6ADA               	clrf	fsr2h,c
  2986  0006C0  0E05               	movlw	high _uart1RxBuffer
  2987  0006C2  22DA               	addwfc	fsr2h,f,c
  2988  0006C4  C2A1 F4DF          	movff	673,indf2	;volatile
  2989  0006C8  2A1C               	incf	_uart1RxHead^(0+1280),f,c	;volatile
  2990  0006CA                     
  2991                           ;mcc_generated_files/uart1.c: 285:     if(sizeof(uart1RxBuffer) <= uart1RxHead)
  2992  0006CA  0E07               	movlw	7
  2993  0006CC  641C               	cpfsgt	_uart1RxHead^(0+1280),c	;volatile
  2994  0006CE  EF6B  F003         	goto	i2u1_41
  2995  0006D2  EF6D  F003         	goto	i2u1_40
  2996  0006D6                     i2u1_41:
  2997  0006D6  EF6F  F003         	goto	i2l1357
  2998  0006DA                     i2u1_40:
  2999  0006DA                     
  3000                           ;mcc_generated_files/uart1.c: 286:     {;mcc_generated_files/uart1.c: 287:         uart1
      +                          RxHead = 0;
  3001  0006DA  0E00               	movlw	0
  3002  0006DC  6E1C               	movwf	_uart1RxHead^(0+1280),c	;volatile
  3003  0006DE                     i2l1357:
  3004                           
  3005                           ;mcc_generated_files/uart1.c: 289:     uart1RxCount++;
  3006  0006DE  2A1A               	incf	_uart1RxCount^(0+1280),f,c	;volatile
  3007  0006E0  0012               	return		;funcret
  3008  0006E2                     __end_of_UART1_RxDataHandler:
  3009                           	callstack 0
  3010                           
  3011 ;; *************** function _TMR1_ISR *****************
  3012 ;; Defined at:
  3013 ;;		line 164 in file "mcc_generated_files/tmr1.c"
  3014 ;; Parameters:    Size  Location     Type
  3015 ;;		None
  3016 ;; Auto vars:     Size  Location     Type
  3017 ;;		None
  3018 ;; Return value:  Size  Location     Type
  3019 ;;                  1    wreg      void 
  3020 ;; Registers used:
  3021 ;;		wreg, status,2, status,0, pclath, tosl, cstack
  3022 ;; Tracked objects:
  3023 ;;		On entry : 0/0
  3024 ;;		On exit  : 0/0
  3025 ;;		Unchanged: 0/0
  3026 ;; Data sizes:     COMRAM   BANK5   BANK6   BANK7   BANK8   BANK9  BANK10  BANK11  BANK12  BANK13  BANK14  BANK15  BANK1
      +6  BANK17  BANK18  BANK19  BANK20  BANK21  BANK22  BANK23  BANK24  BANK25  BANK26  BANK27  BANK28  BANK29  BANK30  BANK3
      +1  BANK32  BANK33  BANK34  BANK35  BANK36  BANK37
  3027 ;;      Params:         0       0       0       0       0       0       0       0       0       0       0       0       
      +0       0       0       0       0       0       0       0       0       0       0       0       0       0       0       
      +0       0       0       0       0       0       0
  3028 ;;      Locals:         0       0       0       0       0       0       0       0       0       0       0       0       
      +0       0       0       0       0       0       0       0       0       0       0       0       0       0       0       
      +0       0       0       0       0       0       0
  3029 ;;      Temps:          0       0       0       0       0       0       0       0       0       0       0       0       
      +0       0       0       0       0       0       0       0       0       0       0       0       0       0       0       
      +0       0       0       0       0       0       0
  3030 ;;      Totals:         0       0       0       0       0       0       0       0       0       0       0       0       
      +0       0       0       0       0       0       0       0       0       0       0       0       0       0       0       
      +0       0       0       0       0       0       0
  3031 ;;Total ram usage:        0 bytes
  3032 ;; Hardware stack levels used: 1
  3033 ;; Hardware stack levels required when called: 1
  3034 ;; This function calls:
  3035 ;;		Absolute function
  3036 ;;		_TMR1_DefaultInterruptHandler
  3037 ;; This function is called by:
  3038 ;;		_INTERRUPT_InterruptManager
  3039 ;; This function uses a non-reentrant model
  3040 ;;
  3041                           
  3042                           	psect	text31
  3043  000626                     __ptext31:
  3044                           	callstack 0
  3045  000626                     _TMR1_ISR:
  3046                           	callstack 122
  3047  000626                     
  3048                           ;mcc_generated_files/tmr1.c: 168:     PIR3bits.TMR1IF = 0;
  3049  000626  98B1               	bcf	177,4,c	;volatile
  3050  000628                     
  3051                           ;mcc_generated_files/tmr1.c: 171:     if(TMR1_InterruptHandler)
  3052  000628  5028               	movf	_TMR1_InterruptHandler^(0+1280),w,c
  3053  00062A  1029               	iorwf	(_TMR1_InterruptHandler+1)^(0+1280),w,c
  3054  00062C  102A               	iorwf	(_TMR1_InterruptHandler+2)^(0+1280),w,c
  3055  00062E  B4D8               	btfsc	status,2,c
  3056  000630  EF1C  F003         	goto	i2u4_41
  3057  000634  EF1E  F003         	goto	i2u4_40
  3058  000638                     i2u4_41:
  3059  000638  EF2B  F003         	goto	i2l429
  3060  00063C                     i2u4_40:
  3061  00063C                     
  3062                           ;mcc_generated_files/tmr1.c: 172:     {;mcc_generated_files/tmr1.c: 173:         TMR1_In
      +                          terruptHandler();
  3063  00063C  D802               	call	i2u5_48
  3064  00063E  EF2B  F003         	goto	i2u5_49
  3065  000642                     i2u5_48:
  3066  000642  0005               	push	
  3067  000644  6EFA               	movwf	pclath,c
  3068  000646  5028               	movf	_TMR1_InterruptHandler^(0+1280),w,c
  3069  000648  6EFD               	movwf	tosl,c
  3070  00064A  5029               	movf	(_TMR1_InterruptHandler+1)^(0+1280),w,c
  3071  00064C  6EFE               	movwf	tosh,c
  3072  00064E  502A               	movf	(_TMR1_InterruptHandler+2)^(0+1280),w,c
  3073  000650  6EFF               	movwf	tosu,c
  3074  000652  50FA               	movf	pclath,w,c
  3075  000654  0012               	return		;indir
  3076  000656                     i2u5_49:
  3077  000656                     i2l429:
  3078  000656  0012               	return		;funcret
  3079  000658                     __end_of_TMR1_ISR:
  3080                           	callstack 0
  3081                           
  3082 ;; *************** function _TMR1_DefaultInterruptHandler *****************
  3083 ;; Defined at:
  3084 ;;		line 182 in file "mcc_generated_files/tmr1.c"
  3085 ;; Parameters:    Size  Location     Type
  3086 ;;		None
  3087 ;; Auto vars:     Size  Location     Type
  3088 ;;		None
  3089 ;; Return value:  Size  Location     Type
  3090 ;;                  1    wreg      void 
  3091 ;; Registers used:
  3092 ;;		None
  3093 ;; Tracked objects:
  3094 ;;		On entry : 0/0
  3095 ;;		On exit  : 0/0
  3096 ;;		Unchanged: 0/0
  3097 ;; Data sizes:     COMRAM   BANK5   BANK6   BANK7   BANK8   BANK9  BANK10  BANK11  BANK12  BANK13  BANK14  BANK15  BANK1
      +6  BANK17  BANK18  BANK19  BANK20  BANK21  BANK22  BANK23  BANK24  BANK25  BANK26  BANK27  BANK28  BANK29  BANK30  BANK3
      +1  BANK32  BANK33  BANK34  BANK35  BANK36  BANK37
  3098 ;;      Params:         0       0       0       0       0       0       0       0       0       0       0       0       
      +0       0       0       0       0       0       0       0       0       0       0       0       0       0       0       
      +0       0       0       0       0       0       0
  3099 ;;      Locals:         0       0       0       0       0       0       0       0       0       0       0       0       
      +0       0       0       0       0       0       0       0       0       0       0       0       0       0       0       
      +0       0       0       0       0       0       0
  3100 ;;      Temps:          0       0       0       0       0       0       0       0       0       0       0       0       
      +0       0       0       0       0       0       0       0       0       0       0       0       0       0       0       
      +0       0       0       0       0       0       0
  3101 ;;      Totals:         0       0       0       0       0       0       0       0       0       0       0       0       
      +0       0       0       0       0       0       0       0       0       0       0       0       0       0       0       
      +0       0       0       0       0       0       0
  3102 ;;Total ram usage:        0 bytes
  3103 ;; Hardware stack levels used: 1
  3104 ;; This function calls:
  3105 ;;		Nothing
  3106 ;; This function is called by:
  3107 ;;		_TMR1_Initialize
  3108 ;;		_TMR1_ISR
  3109 ;; This function uses a non-reentrant model
  3110 ;;
  3111                           
  3112                           	psect	text32
  3113  000810                     __ptext32:
  3114                           	callstack 0
  3115  000810                     _TMR1_DefaultInterruptHandler:
  3116                           	callstack 122
  3117  000810                     
  3118                           ;mcc_generated_files/tmr1.c: 186:     NCO1CONbits.EN = 0;
  3119  000810  0104               	movlb	4	; () banked
  3120  000812  9F46               	bcf	70,7,b	;volatile
  3121  000814                     
  3122                           ; BSR set to: 4
  3123  000814  0012               	return		;funcret
  3124  000816                     __end_of_TMR1_DefaultInterruptHandler:
  3125                           	callstack 0
  3126                           
  3127 ;; *************** function _ADCC_ISR *****************
  3128 ;; Defined at:
  3129 ;;		line 306 in file "mcc_generated_files/adcc.c"
  3130 ;; Parameters:    Size  Location     Type
  3131 ;;		None
  3132 ;; Auto vars:     Size  Location     Type
  3133 ;;		None
  3134 ;; Return value:  Size  Location     Type
  3135 ;;                  1    wreg      void 
  3136 ;; Registers used:
  3137 ;;		wreg, status,2, status,0, pclath, tosl, cstack
  3138 ;; Tracked objects:
  3139 ;;		On entry : 0/0
  3140 ;;		On exit  : 0/0
  3141 ;;		Unchanged: 0/0
  3142 ;; Data sizes:     COMRAM   BANK5   BANK6   BANK7   BANK8   BANK9  BANK10  BANK11  BANK12  BANK13  BANK14  BANK15  BANK1
      +6  BANK17  BANK18  BANK19  BANK20  BANK21  BANK22  BANK23  BANK24  BANK25  BANK26  BANK27  BANK28  BANK29  BANK30  BANK3
      +1  BANK32  BANK33  BANK34  BANK35  BANK36  BANK37
  3143 ;;      Params:         0       0       0       0       0       0       0       0       0       0       0       0       
      +0       0       0       0       0       0       0       0       0       0       0       0       0       0       0       
      +0       0       0       0       0       0       0
  3144 ;;      Locals:         0       0       0       0       0       0       0       0       0       0       0       0       
      +0       0       0       0       0       0       0       0       0       0       0       0       0       0       0       
      +0       0       0       0       0       0       0
  3145 ;;      Temps:          0       0       0       0       0       0       0       0       0       0       0       0       
      +0       0       0       0       0       0       0       0       0       0       0       0       0       0       0       
      +0       0       0       0       0       0       0
  3146 ;;      Totals:         0       0       0       0       0       0       0       0       0       0       0       0       
      +0       0       0       0       0       0       0       0       0       0       0       0       0       0       0       
      +0       0       0       0       0       0       0
  3147 ;;Total ram usage:        0 bytes
  3148 ;; Hardware stack levels used: 1
  3149 ;; Hardware stack levels required when called: 1
  3150 ;; This function calls:
  3151 ;;		Absolute function
  3152 ;;		_ADCC_DefaultInterruptHandler
  3153 ;; This function is called by:
  3154 ;;		_INTERRUPT_InterruptManager
  3155 ;; This function uses a non-reentrant model
  3156 ;;
  3157                           
  3158                           	psect	text33
  3159  000658                     __ptext33:
  3160                           	callstack 0
  3161  000658                     _ADCC_ISR:
  3162                           	callstack 122
  3163  000658                     
  3164                           ;mcc_generated_files/adcc.c: 309:     PIR1bits.ADIF = 0;
  3165  000658  94AF               	bcf	175,2,c	;volatile
  3166  00065A                     
  3167                           ;mcc_generated_files/adcc.c: 311:     if (ADCC_ADI_InterruptHandler)
  3168  00065A  502B               	movf	_ADCC_ADI_InterruptHandler^(0+1280),w,c
  3169  00065C  102C               	iorwf	(_ADCC_ADI_InterruptHandler+1)^(0+1280),w,c
  3170  00065E  102D               	iorwf	(_ADCC_ADI_InterruptHandler+2)^(0+1280),w,c
  3171  000660  B4D8               	btfsc	status,2,c
  3172  000662  EF35  F003         	goto	i2u2_41
  3173  000666  EF37  F003         	goto	i2u2_40
  3174  00066A                     i2u2_41:
  3175  00066A  EF44  F003         	goto	i2l339
  3176  00066E                     i2u2_40:
  3177  00066E                     
  3178                           ;mcc_generated_files/adcc.c: 312:             ADCC_ADI_InterruptHandler();
  3179  00066E  D802               	call	i2u3_48
  3180  000670  EF44  F003         	goto	i2u3_49
  3181  000674                     i2u3_48:
  3182  000674  0005               	push	
  3183  000676  6EFA               	movwf	pclath,c
  3184  000678  502B               	movf	_ADCC_ADI_InterruptHandler^(0+1280),w,c
  3185  00067A  6EFD               	movwf	tosl,c
  3186  00067C  502C               	movf	(_ADCC_ADI_InterruptHandler+1)^(0+1280),w,c
  3187  00067E  6EFE               	movwf	tosh,c
  3188  000680  502D               	movf	(_ADCC_ADI_InterruptHandler+2)^(0+1280),w,c
  3189  000682  6EFF               	movwf	tosu,c
  3190  000684  50FA               	movf	pclath,w,c
  3191  000686  0012               	return		;indir
  3192  000688                     i2u3_49:
  3193  000688                     i2l339:
  3194  000688  0012               	return		;funcret
  3195  00068A                     __end_of_ADCC_ISR:
  3196                           	callstack 0
  3197                           
  3198 ;; *************** function _ADCC_DefaultInterruptHandler *****************
  3199 ;; Defined at:
  3200 ;;		line 319 in file "mcc_generated_files/adcc.c"
  3201 ;; Parameters:    Size  Location     Type
  3202 ;;		None
  3203 ;; Auto vars:     Size  Location     Type
  3204 ;;		None
  3205 ;; Return value:  Size  Location     Type
  3206 ;;                  1    wreg      void 
  3207 ;; Registers used:
  3208 ;;		None
  3209 ;; Tracked objects:
  3210 ;;		On entry : 0/0
  3211 ;;		On exit  : 0/0
  3212 ;;		Unchanged: 0/0
  3213 ;; Data sizes:     COMRAM   BANK5   BANK6   BANK7   BANK8   BANK9  BANK10  BANK11  BANK12  BANK13  BANK14  BANK15  BANK1
      +6  BANK17  BANK18  BANK19  BANK20  BANK21  BANK22  BANK23  BANK24  BANK25  BANK26  BANK27  BANK28  BANK29  BANK30  BANK3
      +1  BANK32  BANK33  BANK34  BANK35  BANK36  BANK37
  3214 ;;      Params:         0       0       0       0       0       0       0       0       0       0       0       0       
      +0       0       0       0       0       0       0       0       0       0       0       0       0       0       0       
      +0       0       0       0       0       0       0
  3215 ;;      Locals:         0       0       0       0       0       0       0       0       0       0       0       0       
      +0       0       0       0       0       0       0       0       0       0       0       0       0       0       0       
      +0       0       0       0       0       0       0
  3216 ;;      Temps:          0       0       0       0       0       0       0       0       0       0       0       0       
      +0       0       0       0       0       0       0       0       0       0       0       0       0       0       0       
      +0       0       0       0       0       0       0
  3217 ;;      Totals:         0       0       0       0       0       0       0       0       0       0       0       0       
      +0       0       0       0       0       0       0       0       0       0       0       0       0       0       0       
      +0       0       0       0       0       0       0
  3218 ;;Total ram usage:        0 bytes
  3219 ;; Hardware stack levels used: 1
  3220 ;; This function calls:
  3221 ;;		Nothing
  3222 ;; This function is called by:
  3223 ;;		_ADCC_Initialize
  3224 ;;		_ADCC_ISR
  3225 ;; This function uses a non-reentrant model
  3226 ;;
  3227                           
  3228                           	psect	text34
  3229  00081E                     __ptext34:
  3230                           	callstack 0
  3231  00081E                     _ADCC_DefaultInterruptHandler:
  3232                           	callstack 122
  3233  00081E  0012               	return		;funcret
  3234  000820                     __end_of_ADCC_DefaultInterruptHandler:
  3235                           	callstack 0
  3236                           
  3237                           ;
  3238                           ; Interrupt Vector Table @ 0x8
  3239                           ;
  3240                           
  3241                           	psect	ivt0x8
  3242  000008                     __pivt0x8:
  3243                           	callstack 0
  3244  000008                     ivt0x8_base:
  3245                           	callstack 0
  3246                           
  3247                           ; high-priority vector
  3248  000008  EF2C  F001         	goto	_INTERRUPT_InterruptManager
  3249  000018                     	org	16
  3250                           
  3251                           ; low-priority vector
  3252  000018  00FF               	reset	
  3253  0000                     
  3254                           	psect	text35
  3255  000000                     __ptext35:
  3256                           	callstack 0
  3257  000000                     
  3258                           	psect	rparam
  3259  0000                     
  3260                           	psect	idloc
  3261                           
  3262                           ;Config register IDLOC0 @ 0x200000
  3263                           ;	unspecified, using default values
  3264  200000                     	org	2097152
  3265  200000  0FFF               	dw	4095
  3266                           
  3267                           ;Config register IDLOC1 @ 0x200002
  3268                           ;	unspecified, using default values
  3269  200002                     	org	2097154
  3270  200002  0FFF               	dw	4095
  3271                           
  3272                           ;Config register IDLOC2 @ 0x200004
  3273                           ;	unspecified, using default values
  3274  200004                     	org	2097156
  3275  200004  0FFF               	dw	4095
  3276                           
  3277                           ;Config register IDLOC3 @ 0x200006
  3278                           ;	unspecified, using default values
  3279  200006                     	org	2097158
  3280  200006  0FFF               	dw	4095
  3281                           
  3282                           ;Config register IDLOC4 @ 0x200008
  3283                           ;	unspecified, using default values
  3284  200008                     	org	2097160
  3285  200008  0FFF               	dw	4095
  3286                           
  3287                           ;Config register IDLOC5 @ 0x20000A
  3288                           ;	unspecified, using default values
  3289  20000A                     	org	2097162
  3290  20000A  0FFF               	dw	4095
  3291                           
  3292                           ;Config register IDLOC6 @ 0x20000C
  3293                           ;	unspecified, using default values
  3294  20000C                     	org	2097164
  3295  20000C  0FFF               	dw	4095
  3296                           
  3297                           ;Config register IDLOC7 @ 0x20000E
  3298                           ;	unspecified, using default values
  3299  20000E                     	org	2097166
  3300  20000E  0FFF               	dw	4095
  3301                           
  3302                           ;Config register IDLOC8 @ 0x200010
  3303                           ;	unspecified, using default values
  3304  200010                     	org	2097168
  3305  200010  0FFF               	dw	4095
  3306                           
  3307                           ;Config register IDLOC9 @ 0x200012
  3308                           ;	unspecified, using default values
  3309  200012                     	org	2097170
  3310  200012  0FFF               	dw	4095
  3311                           
  3312                           ;Config register IDLOC10 @ 0x200014
  3313                           ;	unspecified, using default values
  3314  200014                     	org	2097172
  3315  200014  0FFF               	dw	4095
  3316                           
  3317                           ;Config register IDLOC11 @ 0x200016
  3318                           ;	unspecified, using default values
  3319  200016                     	org	2097174
  3320  200016  0FFF               	dw	4095
  3321                           
  3322                           ;Config register IDLOC12 @ 0x200018
  3323                           ;	unspecified, using default values
  3324  200018                     	org	2097176
  3325  200018  0FFF               	dw	4095
  3326                           
  3327                           ;Config register IDLOC13 @ 0x20001A
  3328                           ;	unspecified, using default values
  3329  20001A                     	org	2097178
  3330  20001A  0FFF               	dw	4095
  3331                           
  3332                           ;Config register IDLOC14 @ 0x20001C
  3333                           ;	unspecified, using default values
  3334  20001C                     	org	2097180
  3335  20001C  0FFF               	dw	4095
  3336                           
  3337                           ;Config register IDLOC15 @ 0x20001E
  3338                           ;	unspecified, using default values
  3339  20001E                     	org	2097182
  3340  20001E  0FFF               	dw	4095
  3341                           
  3342                           	psect	config
  3343                           
  3344                           ;Config register CONFIG1 @ 0x300000
  3345                           ;	External Oscillator Selection
  3346                           ;	FEXTOSC = OFF, Oscillator not enabled
  3347                           ;	Reset Oscillator Selection
  3348                           ;	RSTOSC = HFINTOSC_64MHZ, HFINTOSC with HFFRQ = 64 MHz and CDIV = 1:1
  3349  300000                     	org	3145728
  3350  300000  8C                 	db	140
  3351                           
  3352                           ;Config register CONFIG2 @ 0x300001
  3353                           ;	Clock out Enable bit
  3354                           ;	CLKOUTEN = OFF, CLKOUT function is disabled
  3355                           ;	PRLOCKED One-Way Set Enable bit
  3356                           ;	PR1WAY = ON, PRLOCKED bit can be cleared and set only once
  3357                           ;	Clock Switch Enable bit
  3358                           ;	CSWEN = ON, Writing to NOSC and NDIV is allowed
  3359                           ;	Fail-Safe Clock Monitor Enable bit
  3360                           ;	FCMEN = ON, Fail-Safe Clock Monitor enabled
  3361  300001                     	org	3145729
  3362  300001  FF                 	db	255
  3363                           
  3364                           ;Config register CONFIG3 @ 0x300002
  3365                           ;	MCLR Enable bit
  3366                           ;	MCLRE = EXTMCLR, If LVP = 0, MCLR pin is MCLR; If LVP = 1, RE3 pin function is MCLR
  3367                           ;	Power-up timer selection bits
  3368                           ;	PWRTS = PWRT_OFF, PWRT is disabled
  3369                           ;	Multi-vector enable bit
  3370                           ;	MVECEN = OFF, Interrupt contoller does not use vector table to prioritze interrupts
  3371                           ;	IVTLOCK bit One-way set enable bit
  3372                           ;	IVT1WAY = ON, IVTLOCKED bit can be cleared and set only once
  3373                           ;	Low Power BOR Enable bit
  3374                           ;	LPBOREN = OFF, Low-Power BOR disabled
  3375                           ;	Brown-out Reset Enable bits
  3376                           ;	BOREN = SBORDIS, Brown-out Reset enabled , SBOREN bit is ignored
  3377  300002                     	org	3145730
  3378  300002  F7                 	db	247
  3379                           
  3380                           ;Config register CONFIG4 @ 0x300003
  3381                           ;	Brown-out Reset Voltage Selection bits
  3382                           ;	BORV = VBOR_1P9, Brown-out Reset Voltage (VBOR) set to 1.9V
  3383                           ;	ZCD Disable bit
  3384                           ;	ZCD = OFF, ZCD module is disabled. ZCD can be enabled by setting the ZCDSEN bit of ZCD
      +                          CON
  3385                           ;	PPSLOCK bit One-Way Set Enable bit
  3386                           ;	PPS1WAY = ON, PPSLOCKED bit can be cleared and set only once; PPS registers remain loc
      +                          ked after one clear/set cycle
  3387                           ;	Stack Full/Underflow Reset Enable bit
  3388                           ;	STVREN = ON, Stack full/underflow will cause Reset
  3389                           ;	Low Voltage Programming Enable bit
  3390                           ;	LVP = ON, Low voltage programming enabled. MCLR/VPP pin function is MCLR. MCLRE config
      +                          uration bit is ignored
  3391                           ;	Extended Instruction Set Enable bit
  3392                           ;	XINST = OFF, Extended Instruction Set and Indexed Addressing Mode disabled
  3393  300003                     	org	3145731
  3394  300003  FF                 	db	255
  3395                           
  3396                           ;Config register CONFIG5 @ 0x300004
  3397                           ;	WDT Period selection bits
  3398                           ;	WDTCPS = WDTCPS_31, Divider ratio 1:65536; software control of WDTPS
  3399                           ;	WDT operating mode
  3400                           ;	WDTE = OFF, WDT Disabled; SWDTEN is ignored
  3401  300004                     	org	3145732
  3402  300004  9F                 	db	159
  3403                           
  3404                           ;Config register CONFIG6 @ 0x300005
  3405                           ;	WDT Window Select bits
  3406                           ;	WDTCWS = WDTCWS_7, window always open (100%); software control; keyed access not requi
      +                          red
  3407                           ;	WDT input clock selector
  3408                           ;	WDTCCS = SC, Software Control
  3409  300005                     	org	3145733
  3410  300005  FF                 	db	255
  3411                           
  3412                           ;Config register CONFIG7 @ 0x300006
  3413                           ;	Boot Block Size selection bits
  3414                           ;	BBSIZE = BBSIZE_512, Boot Block size is 512 words
  3415                           ;	Boot Block enable bit
  3416                           ;	BBEN = OFF, Boot block disabled
  3417                           ;	Storage Area Flash enable bit
  3418                           ;	SAFEN = OFF, SAF disabled
  3419                           ;	Background Debugger
  3420                           ;	DEBUG = OFF, Background Debugger disabled
  3421  300006                     	org	3145734
  3422  300006  FF                 	db	255
  3423                           
  3424                           ;Config register CONFIG8 @ 0x300007
  3425                           ;	Boot Block Write Protection bit
  3426                           ;	WRTB = OFF, Boot Block not Write protected
  3427                           ;	Configuration Register Write Protection bit
  3428                           ;	WRTC = OFF, Configuration registers not Write protected
  3429                           ;	Data EEPROM Write Protection bit
  3430                           ;	WRTD = OFF, Data EEPROM not Write protected
  3431                           ;	SAF Write protection bit
  3432                           ;	WRTSAF = OFF, SAF not Write Protected
  3433                           ;	Application Block write protection bit
  3434                           ;	WRTAPP = OFF, Application Block not write protected
  3435  300007                     	org	3145735
  3436  300007  FF                 	db	255
  3437                           
  3438                           ; Padding undefined space
  3439  300008                     	org	3145736
  3440  300008  FF                 	db	255
  3441                           
  3442                           ;Config register CONFIG10 @ 0x300009
  3443                           ;	PFM and Data EEPROM Code Protection bit
  3444                           ;	CP = OFF, PFM and Data EEPROM code protection disabled
  3445  300009                     	org	3145737
  3446  300009  FF                 	db	255
  3447                           tosu	equ	0x4FF
  3448                           tosh	equ	0x4FE
  3449                           tosl	equ	0x4FD
  3450                           stkptr	equ	0x4FC
  3451                           pclatu	equ	0x4FB
  3452                           pclath	equ	0x4FA
  3453                           pcl	equ	0x4F9
  3454                           tblptru	equ	0x4F8
  3455                           tblptrh	equ	0x4F7
  3456                           tblptrl	equ	0x4F6
  3457                           tablat	equ	0x4F5
  3458                           prodh	equ	0x4F4
  3459                           prodl	equ	0x4F3
  3460                           indf0	equ	0x4EF
  3461                           postinc0	equ	0x4EE
  3462                           postdec0	equ	0x4ED
  3463                           preinc0	equ	0x4EC
  3464                           plusw0	equ	0x4EB
  3465                           fsr0h	equ	0x4EA
  3466                           fsr0l	equ	0x4E9
  3467                           wreg	equ	0x4E8
  3468                           indf1	equ	0x4E7
  3469                           postinc1	equ	0x4E6
  3470                           postdec1	equ	0x4E5
  3471                           preinc1	equ	0x4E4
  3472                           plusw1	equ	0x4E3
  3473                           fsr1h	equ	0x4E2
  3474                           fsr1l	equ	0x4E1
  3475                           bsr	equ	0x4E0
  3476                           indf2	equ	0x4DF
  3477                           postinc2	equ	0x4DE
  3478                           postdec2	equ	0x4DD
  3479                           preinc2	equ	0x4DC
  3480                           plusw2	equ	0x4DB
  3481                           fsr2h	equ	0x4DA
  3482                           fsr2l	equ	0x4D9
  3483                           status	equ	0x4D8

Data Sizes:
    Strings     0
    Constant    0
    Data        6
    BSS         30
    Persistent  24
    Stack       0

Auto Spaces:
    Space          Size  Autos    Used
    COMRAM           95     16      76
    BANK5           160      0       0
    BANK6           256      0       0
    BANK7           256      0       0
    BANK8           256      0       0
    BANK9           256      0       0
    BANK10          256      0       0
    BANK11          256      0       0
    BANK12          256      0       0
    BANK13          256      0       0
    BANK14          256      0       0
    BANK15          256      0       0
    BANK16          256      0       0
    BANK17          256      0       0
    BANK18          256      0       0
    BANK19          256      0       0
    BANK20          256      0       0
    BANK21          256      0       0
    BANK22          256      0       0
    BANK23          256      0       0
    BANK24          256      0       0
    BANK25          256      0       0
    BANK26          256      0       0
    BANK27          256      0       0
    BANK28          256      0       0
    BANK29          256      0       0
    BANK30          256      0       0
    BANK31          256      0       0
    BANK32          256      0       0
    BANK33          256      0       0
    BANK34          256      0       0
    BANK35          256      0       0
    BANK36          256      0       0
    BANK37          256      0       0

Pointer List with Targets:

    UART1_SetTxInterruptHandler@InterruptHandler	PTR FTN()void  size(3) Largest target is 1
		 -> UART1_Transmit_ISR(), 

    UART1_SetRxInterruptHandler@InterruptHandler	PTR FTN()void  size(3) Largest target is 1
		 -> UART1_Receive_ISR(), 

    UART1_SetErrorHandler@interruptHandler	PTR FTN()void  size(3) Largest target is 1
		 -> UART1_DefaultErrorHandler(), 

    UART1_SetOverrunErrorHandler@interruptHandler	PTR FTN()void  size(3) Largest target is 1
		 -> UART1_DefaultOverrunErrorHandler(), 

    UART1_SetFramingErrorHandler@interruptHandler	PTR FTN()void  size(3) Largest target is 1
		 -> UART1_DefaultFramingErrorHandler(), 

    UART1_ErrorHandler	PTR FTN()void  size(3) Largest target is 1
		 -> UART1_DefaultErrorHandler(), Absolute function(), 

    UART1_OverrunErrorHandler	PTR FTN()void  size(3) Largest target is 1
		 -> UART1_DefaultOverrunErrorHandler(), Absolute function(), 

    UART1_FramingErrorHandler	PTR FTN()void  size(3) Largest target is 1
		 -> UART1_DefaultFramingErrorHandler(), Absolute function(), 

    TMR1_SetInterruptHandler@InterruptHandler	PTR FTN()void  size(3) Largest target is 1
		 -> TMR1_DefaultInterruptHandler(), 

    TMR1_InterruptHandler	PTR FTN()void  size(3) Largest target is 1
		 -> TMR1_DefaultInterruptHandler(), Absolute function(), 

    ADCC_SetADIInterruptHandler@InterruptHandler	PTR FTN()void  size(3) Largest target is 1
		 -> ADCC_DefaultInterruptHandler(), 

    ADCC_ADI_InterruptHandler	PTR FTN()void  size(3) Largest target is 1
		 -> Absolute function(), ADCC_DefaultInterruptHandler(), 

    UART1_RxInterruptHandler	PTR FTN()void  size(3) Largest target is 1
		 -> UART1_Receive_ISR(), Absolute function(), 

    UART1_TxInterruptHandler	PTR FTN()void  size(3) Largest target is 1
		 -> UART1_Transmit_ISR(), Absolute function(), 


Critical Paths under _main in COMRAM

    _SYSTEM_Initialize->_TMR1_Initialize
    _UART1_Initialize->_UART1_SetErrorHandler
    _UART1_Initialize->_UART1_SetFramingErrorHandler
    _UART1_Initialize->_UART1_SetOverrunErrorHandler
    _UART1_Initialize->_UART1_SetRxInterruptHandler
    _UART1_Initialize->_UART1_SetTxInterruptHandler
    _TMR1_Initialize->_TMR1_SetInterruptHandler
    _ADCC_Initialize->_ADCC_SetADIInterruptHandler

Critical Paths under _INTERRUPT_InterruptManager in COMRAM

    None.

Critical Paths under _main in BANK5

    None.

Critical Paths under _INTERRUPT_InterruptManager in BANK5

    None.

Critical Paths under _main in BANK6

    None.

Critical Paths under _INTERRUPT_InterruptManager in BANK6

    None.

Critical Paths under _main in BANK7

    None.

Critical Paths under _INTERRUPT_InterruptManager in BANK7

    None.

Critical Paths under _main in BANK8

    None.

Critical Paths under _INTERRUPT_InterruptManager in BANK8

    None.

Critical Paths under _main in BANK9

    None.

Critical Paths under _INTERRUPT_InterruptManager in BANK9

    None.

Critical Paths under _main in BANK10

    None.

Critical Paths under _INTERRUPT_InterruptManager in BANK10

    None.

Critical Paths under _main in BANK11

    None.

Critical Paths under _INTERRUPT_InterruptManager in BANK11

    None.

Critical Paths under _main in BANK12

    None.

Critical Paths under _INTERRUPT_InterruptManager in BANK12

    None.

Critical Paths under _main in BANK13

    None.

Critical Paths under _INTERRUPT_InterruptManager in BANK13

    None.

Critical Paths under _main in BANK14

    None.

Critical Paths under _INTERRUPT_InterruptManager in BANK14

    None.

Critical Paths under _main in BANK15

    None.

Critical Paths under _INTERRUPT_InterruptManager in BANK15

    None.

Critical Paths under _main in BANK16

    None.

Critical Paths under _INTERRUPT_InterruptManager in BANK16

    None.

Critical Paths under _main in BANK17

    None.

Critical Paths under _INTERRUPT_InterruptManager in BANK17

    None.

Critical Paths under _main in BANK18

    None.

Critical Paths under _INTERRUPT_InterruptManager in BANK18

    None.

Critical Paths under _main in BANK19

    None.

Critical Paths under _INTERRUPT_InterruptManager in BANK19

    None.

Critical Paths under _main in BANK20

    None.

Critical Paths under _INTERRUPT_InterruptManager in BANK20

    None.

Critical Paths under _main in BANK21

    None.

Critical Paths under _INTERRUPT_InterruptManager in BANK21

    None.

Critical Paths under _main in BANK22

    None.

Critical Paths under _INTERRUPT_InterruptManager in BANK22

    None.

Critical Paths under _main in BANK23

    None.

Critical Paths under _INTERRUPT_InterruptManager in BANK23

    None.

Critical Paths under _main in BANK24

    None.

Critical Paths under _INTERRUPT_InterruptManager in BANK24

    None.

Critical Paths under _main in BANK25

    None.

Critical Paths under _INTERRUPT_InterruptManager in BANK25

    None.

Critical Paths under _main in BANK26

    None.

Critical Paths under _INTERRUPT_InterruptManager in BANK26

    None.

Critical Paths under _main in BANK27

    None.

Critical Paths under _INTERRUPT_InterruptManager in BANK27

    None.

Critical Paths under _main in BANK28

    None.

Critical Paths under _INTERRUPT_InterruptManager in BANK28

    None.

Critical Paths under _main in BANK29

    None.

Critical Paths under _INTERRUPT_InterruptManager in BANK29

    None.

Critical Paths under _main in BANK30

    None.

Critical Paths under _INTERRUPT_InterruptManager in BANK30

    None.

Critical Paths under _main in BANK31

    None.

Critical Paths under _INTERRUPT_InterruptManager in BANK31

    None.

Critical Paths under _main in BANK32

    None.

Critical Paths under _INTERRUPT_InterruptManager in BANK32

    None.

Critical Paths under _main in BANK33

    None.

Critical Paths under _INTERRUPT_InterruptManager in BANK33

    None.

Critical Paths under _main in BANK34

    None.

Critical Paths under _INTERRUPT_InterruptManager in BANK34

    None.

Critical Paths under _main in BANK35

    None.

Critical Paths under _INTERRUPT_InterruptManager in BANK35

    None.

Critical Paths under _main in BANK36

    None.

Critical Paths under _INTERRUPT_InterruptManager in BANK36

    None.

Critical Paths under _main in BANK37

    None.

Critical Paths under _INTERRUPT_InterruptManager in BANK37

    None.

Call Graph Tables:

 ---------------------------------------------------------------------------------
 (Depth) Function   	        Calls       Base Space   Used Autos Params    Refs
 ---------------------------------------------------------------------------------
 (0) _main                                                15    15      0    1154
                                              5 COMRAM    11    11      0
                  _SYSTEM_Initialize
                    _TMR1_StartTimer
                     _TMR1_StopTimer
                    _TMR1_WriteTimer
                         _UART1_Read
                        _UART1_Write
                  _UART1_is_rx_ready
                  _UART1_is_tx_ready
 ---------------------------------------------------------------------------------
 (1) _UART1_is_tx_ready                                    0     0      0       0
 ---------------------------------------------------------------------------------
 (1) _UART1_is_rx_ready                                    0     0      0       0
 ---------------------------------------------------------------------------------
 (1) _UART1_Write                                          1     1      0      30
                                              0 COMRAM     1     1      0
 ---------------------------------------------------------------------------------
 (1) _UART1_Read                                           1     1      0      15
                                              0 COMRAM     1     1      0
 ---------------------------------------------------------------------------------
 (1) _TMR1_WriteTimer                                      2     0      2     240
                                              0 COMRAM     2     0      2
 ---------------------------------------------------------------------------------
 (1) _TMR1_StopTimer                                       0     0      0       0
 ---------------------------------------------------------------------------------
 (1) _TMR1_StartTimer                                      0     0      0       0
 ---------------------------------------------------------------------------------
 (1) _SYSTEM_Initialize                                    0     0      0     686
                    _ADCC_Initialize
               _INTERRUPT_Initialize
                    _NCO1_Initialize
              _OSCILLATOR_Initialize
             _PIN_MANAGER_Initialize
                     _PMD_Initialize
                    _TMR1_Initialize
                   _UART1_Initialize
 ---------------------------------------------------------------------------------
 (2) _UART1_Initialize                                     0     0      0     490
              _UART1_SetErrorHandler
       _UART1_SetFramingErrorHandler
       _UART1_SetOverrunErrorHandler
        _UART1_SetRxInterruptHandler
        _UART1_SetTxInterruptHandler
 ---------------------------------------------------------------------------------
 (3) _UART1_SetTxInterruptHandler                          3     0      3      98
                                              0 COMRAM     3     0      3
 ---------------------------------------------------------------------------------
 (3) _UART1_SetRxInterruptHandler                          3     0      3      98
                                              0 COMRAM     3     0      3
 ---------------------------------------------------------------------------------
 (3) _UART1_SetOverrunErrorHandler                         3     0      3      98
                                              0 COMRAM     3     0      3
 ---------------------------------------------------------------------------------
 (3) _UART1_SetFramingErrorHandler                         3     0      3      98
                                              0 COMRAM     3     0      3
 ---------------------------------------------------------------------------------
 (3) _UART1_SetErrorHandler                                3     0      3      98
                                              0 COMRAM     3     0      3
 ---------------------------------------------------------------------------------
 (2) _TMR1_Initialize                                      2     2      0      98
                                              3 COMRAM     2     2      0
           _TMR1_SetInterruptHandler
 ---------------------------------------------------------------------------------
 (3) _TMR1_SetInterruptHandler                             3     0      3      98
                                              0 COMRAM     3     0      3
 ---------------------------------------------------------------------------------
 (2) _PMD_Initialize                                       0     0      0       0
 ---------------------------------------------------------------------------------
 (2) _PIN_MANAGER_Initialize                               0     0      0       0
 ---------------------------------------------------------------------------------
 (2) _OSCILLATOR_Initialize                                0     0      0       0
 ---------------------------------------------------------------------------------
 (2) _NCO1_Initialize                                      0     0      0       0
 ---------------------------------------------------------------------------------
 (2) _INTERRUPT_Initialize                                 0     0      0       0
 ---------------------------------------------------------------------------------
 (2) _ADCC_Initialize                                      0     0      0      98
        _ADCC_SetADIInterruptHandler
 ---------------------------------------------------------------------------------
 (3) _ADCC_SetADIInterruptHandler                          3     0      3      98
                                              0 COMRAM     3     0      3
 ---------------------------------------------------------------------------------
 Estimated maximum stack depth 3
 ---------------------------------------------------------------------------------
 (Depth) Function   	        Calls       Base Space   Used Autos Params    Refs
 ---------------------------------------------------------------------------------
 (4) _INTERRUPT_InterruptManager                           0     0      0       0
                   Absolute function *
                           _ADCC_ISR
                           _TMR1_ISR
                  _UART1_Receive_ISR *
                 _UART1_Transmit_ISR *
 ---------------------------------------------------------------------------------
 (5) _UART1_Transmit_ISR                                   0     0      0       0
 ---------------------------------------------------------------------------------
 (5) _UART1_Receive_ISR                                    0     0      0       0
                   Absolute function *
          _UART1_DefaultErrorHandler *
   _UART1_DefaultFramingErrorHandler *
   _UART1_DefaultOverrunErrorHandler *
                _UART1_RxDataHandler
 ---------------------------------------------------------------------------------
 (6) _UART1_DefaultOverrunErrorHandler                     0     0      0       0
 ---------------------------------------------------------------------------------
 (6) _UART1_DefaultFramingErrorHandler                     0     0      0       0
 ---------------------------------------------------------------------------------
 (6) _UART1_DefaultErrorHandler                            0     0      0       0
                _UART1_RxDataHandler
 ---------------------------------------------------------------------------------
 (6) _UART1_RxDataHandler                                  0     0      0       0
 ---------------------------------------------------------------------------------
 (5) _TMR1_ISR                                             0     0      0       0
                   Absolute function *
       _TMR1_DefaultInterruptHandler *
 ---------------------------------------------------------------------------------
 (6) _TMR1_DefaultInterruptHandler                         0     0      0       0
 ---------------------------------------------------------------------------------
 (5) _ADCC_ISR                                             0     0      0       0
                   Absolute function *
       _ADCC_DefaultInterruptHandler *
 ---------------------------------------------------------------------------------
 (6) _ADCC_DefaultInterruptHandler                         0     0      0       0
 ---------------------------------------------------------------------------------
 (6) Absolute function(Fake)                               0     0      0       0
 ---------------------------------------------------------------------------------
 Estimated maximum stack depth 6
 ---------------------------------------------------------------------------------

 Call Graph Graphs:

 _main (ROOT)
   _SYSTEM_Initialize
     _ADCC_Initialize
       _ADCC_SetADIInterruptHandler
     _INTERRUPT_Initialize
     _NCO1_Initialize
     _OSCILLATOR_Initialize
     _PIN_MANAGER_Initialize
     _PMD_Initialize
     _TMR1_Initialize
       _TMR1_SetInterruptHandler
     _UART1_Initialize
       _UART1_SetErrorHandler
       _UART1_SetFramingErrorHandler
       _UART1_SetOverrunErrorHandler
       _UART1_SetRxInterruptHandler
       _UART1_SetTxInterruptHandler
   _TMR1_StartTimer
   _TMR1_StopTimer
   _TMR1_WriteTimer
   _UART1_Read
   _UART1_Write
   _UART1_is_rx_ready
   _UART1_is_tx_ready

 _INTERRUPT_InterruptManager (ROOT)
   Absolute function(Fake) *
   _ADCC_ISR *
     Absolute function(Fake) *
     _ADCC_DefaultInterruptHandler *
   _TMR1_ISR *
     Absolute function(Fake) *
     _TMR1_DefaultInterruptHandler *
   _UART1_Receive_ISR *
     Absolute function(Fake) *
     _UART1_DefaultErrorHandler *
       _UART1_RxDataHandler
     _UART1_DefaultFramingErrorHandler *
     _UART1_DefaultOverrunErrorHandler *
     _UART1_RxDataHandler *
   _UART1_Transmit_ISR *

 Address spaces:
Name               Size   Autos  Total    Cost      Usage
BIGRAM            20FF      0       0      71        0.0%
EEDATA             400      0       0       0        0.0%
BITBANK37          100      0       0      70        0.0%
BANK37             100      0       0      68        0.0%
BITBANK36          100      0       0      66        0.0%
BANK36             100      0       0      67        0.0%
BITBANK35          100      0       0      64        0.0%
BANK35             100      0       0      65        0.0%
BITBANK34          100      0       0      62        0.0%
BANK34             100      0       0      63        0.0%
BITBANK33          100      0       0      60        0.0%
BANK33             100      0       0      61        0.0%
BITBANK32          100      0       0      58        0.0%
BANK32             100      0       0      59        0.0%
BITBANK31          100      0       0      56        0.0%
BANK31             100      0       0      57        0.0%
BITBANK30          100      0       0      54        0.0%
BANK30             100      0       0      55        0.0%
BITBANK29          100      0       0      52        0.0%
BANK29             100      0       0      53        0.0%
BITBANK28          100      0       0      50        0.0%
BANK28             100      0       0      51        0.0%
BITBANK27          100      0       0      48        0.0%
BANK27             100      0       0      49        0.0%
BITBANK26          100      0       0      46        0.0%
BANK26             100      0       0      47        0.0%
BITBANK25          100      0       0      44        0.0%
BANK25             100      0       0      45        0.0%
BITBANK24          100      0       0      42        0.0%
BANK24             100      0       0      43        0.0%
BITBANK23          100      0       0      40        0.0%
BANK23             100      0       0      41        0.0%
BITBANK22          100      0       0      38        0.0%
BANK22             100      0       0      39        0.0%
BITBANK21          100      0       0      36        0.0%
BANK21             100      0       0      37        0.0%
BITBANK20          100      0       0      34        0.0%
BANK20             100      0       0      35        0.0%
BITBANK19          100      0       0      32        0.0%
BANK19             100      0       0      33        0.0%
BITBANK18          100      0       0      30        0.0%
BANK18             100      0       0      31        0.0%
BITBANK17          100      0       0      28        0.0%
BANK17             100      0       0      29        0.0%
BITBANK16          100      0       0      26        0.0%
BANK16             100      0       0      27        0.0%
BITBANK15          100      0       0      24        0.0%
BANK15             100      0       0      25        0.0%
BITBANK14          100      0       0      22        0.0%
BANK14             100      0       0      23        0.0%
BITBANK13          100      0       0      20        0.0%
BANK13             100      0       0      21        0.0%
BITBANK12          100      0       0      18        0.0%
BANK12             100      0       0      19        0.0%
BITBANK11          100      0       0      16        0.0%
BANK11             100      0       0      17        0.0%
BITBANK10          100      0       0      14        0.0%
BANK10             100      0       0      15        0.0%
BITBANK9           100      0       0      12        0.0%
BANK9              100      0       0      13        0.0%
BITBANK8           100      0       0      10        0.0%
BANK8              100      0       0      11        0.0%
BITBANK7           100      0       0       8        0.0%
BANK7              100      0       0       9        0.0%
BITBANK6           100      0       0       6        0.0%
BANK6              100      0       0       7        0.0%
BITBANK5            A0      0       0       4        0.0%
BANK5               A0      0       0       5        0.0%
BITCOMRAM           5F      0       0       0        0.0%
COMRAM              5F     10      4C       1       80.0%
BITSFR_5             0      0       0     200        0.0%
SFR_5                0      0       0     200        0.0%
BITSFR_4             0      0       0     200        0.0%
SFR_4                0      0       0     200        0.0%
BITSFR_3             0      0       0     200        0.0%
SFR_3                0      0       0     200        0.0%
BITSFR_2             0      0       0     200        0.0%
SFR_2                0      0       0     200        0.0%
BITSFR_1             0      0       0     200        0.0%
SFR_1                0      0       0     200        0.0%
BITSFR               0      0       0     200        0.0%
SFR                  0      0       0     200        0.0%
STACK                0      0       0       2        0.0%
NULL                 0      0       0       0        0.0%
ABS                  0      0      4C      69        0.0%
DATA                 0      0      4C       3        0.0%
CODE                 0      0       0       0        0.0%


Microchip Technology PIC18 Macro Assembler V2.32 build 20210201212658 
Symbol Table                                                                                   Wed Oct 20 17:58:52 2021

                                          l51 074C                                            l54 0768  
                                          l57 072A                                            u70 0792  
                                          u71 078C                                            u80 0794  
                                          u90 077C                                            u91 0776  
                                         l124 043E                                           l152 0818  
                                         l402 05A2                                           l405 0808  
                                         l342 07F6                                           l254 04AE  
                                         l432 07E8                                           l600 07B0  
                                         l408 0802                                           l416 06B6  
                                         l603 07A2                                           l531 0794  
                                         l366 0706                                           l534 077E  
                                         l528 03C6                                           l552 04C2  
                                         l553 04DA                                           l641 0088  
                                         l547 0558                                           l556 0508  
                                         l653 00F4                                           l591 07CC  
                                         l594 07BE                                           l597 07DA  
                                         u100 077E                                           u110 051A  
                                         u111 0516                                           u120 054C  
                                         u121 0548                                           u130 04C2  
                                         u131 04BE                                           u140 04D0  
                                         u141 04CC                                           u150 0500  
                                         u151 04FC                                           u410 069A  
                                         u411 0696                                           u421 002E  
                                         u430 0052                                           u431 004E  
                                         u440 0084                                           u441 0080  
                                         u450 009C                                           u451 0098  
                                         u460 00B8                                           u461 00B2  
                                         u470 0124                                           u471 0120  
                                         u466 00BA                                           u487 0182  
                             _timer1ReloadVal 0534                       __size_of_PMD_Initialize 0024  
                                         tosl 0004FD                                           wreg 0004E8  
                ?_ADCC_SetADIInterruptHandler 0537                            _UART1_Transmit_ISR 05A4  
                                        l1511 050A                                          l1503 0780  
                                        l1361 0708                                          l1521 054C  
                                        l1513 050A                                          l1371 041C  
                                        l1363 03C8                                          l1523 0550  
                                        l1515 051A                                          l1507 076A  
                                        l1381 0426                                          l1373 041E  
                                        l1365 03D4                                          l1525 0552  
                                        l1517 053A                                          l1541 04EE  
                                        l1533 04B2                                          l1359 0816  
                                        l1383 074E                                          l1375 0420  
                                        l1367 03E4                                          l1527 0554  
                                        l1519 053C                                          l1543 04F0  
                                        l1535 04B2                                          l1393 06E2  
                                        l1377 0422                                          l1369 03E6  
                                        l1529 0556                                          l1545 0500  
                                        l1537 04D0                                          l1395 0704  
                                        l1379 0424                                          l1811 07A4  
                                        l1547 0504                                          l1539 04DC  
                                        l1821 0440                                          l1813 0796  
                                        l1485 0804                                          l1901 068A  
                                        l1549 0506                                          l1807 07EA  
                                        l1823 049A                                          l1831 0570  
                                        l1815 07C0                                          l1487 07FE  
                                        l1903 069A                                          l1911 06AC  
                                        l1825 049C                                          l1809 07DC  
                                        l1833 0572                                          l1817 07B2  
                                        l1841 0316                                          l1913 06B0  
                                        l1905 069C                                          l1921 0024  
                                        l1827 049E                                          l1835 058A  
                                        l1819 07CE                                          l1851 0344  
                                        l1843 0318                                          l1907 06A0  
                                        l1931 0052                                          l1923 0036  
                                        l1837 058C                                          l1829 055A  
                                        l1861 0358                                          l1853 0348  
                                        l1845 0328                                          l1909 06A6  
                                        l1941 00A6                                          l1933 0064  
                                        l1917 001E                                          l1839 059C  
                                        l1871 036C                                          l1863 035C  
                                        l1855 034C                                          l1847 033A  
                                        l1951 00D8                                          l1943 00D0  
                                        l1935 0068                                          l1919 0022  
                                        l1881 0398                                          l1873 0370  
                                        l1865 0360                                          l1857 0350  
                                        l1849 0340                                          l1961 0104  
                                        l1953 00E8                                          l1945 00D4  
                                        l1937 0088                                          l1929 003E  
                                        l1883 03C4                                          l1875 0374  
                                        l1867 0364                                          l1859 0354  
                                        l1891 0738                                          l1963 0110  
                                        l1955 00EC                                          l1947 00D8  
                                        l1939 009C                                          l1971 0170  
                                        l1877 0378                                          l1869 0368  
                                        l1893 073C                                          l1885 072C  
                                        l1973 0178                                          l1965 0124  
                                        l1957 00F8                                          l1949 00D8  
                                        l1879 0388                                          l1895 0740  
                                        l1887 0730                                          l1959 00FC  
                                        l1897 0744                                          l1889 0734  
                                        l1969 012E                                          l1899 0748  
                                        l1999 0142                                          _LATA 0004BE  
                                        _LATB 0004BF                                          _LATC 0004C0  
                                        _PMD0 000060                                          _PMD1 000061  
                                        _PMD3 000063                                          _PMD4 000064  
                                        _PMD5 000065                                          _PMD6 000066  
                                        _PMD7 000067                                          _PMD8 000068  
                                        _WPUA 000401                                          _WPUB 000409  
                                        _WPUC 000411                                          _WPUE 000421  
                            __end_of_ADCC_ISR 068A                           ?_UART1_Transmit_ISR 0537  
                                        _main 001E                                          indf2 0004DF  
                                        fsr1l 0004E1                                          fsr2l 0004D9  
                                        start 001A                 ??_UART1_SetTxInterruptHandler 053A  
                            ?_NCO1_Initialize 0537                    ??_TMR1_SetInterruptHandler 053A  
                                ___param_bank 000000                    __size_of_UART1_is_rx_ready 0016  
                                 ?_UART1_Read 0537                    __size_of_UART1_is_tx_ready 0016  
              __size_of_OSCILLATOR_Initialize 001C                          ??_UART1_Transmit_ISR 0537  
               __end_of_OSCILLATOR_Initialize 076A                                         _ADCAP 0003F0  
                                       _ADACT 0003F9                                         ?_main 0537  
                                       _ADCLK 0003FA                                         _ADCNT 0003E6  
                                       _ADPCH 0003EC                                         _ADREF 0003F8  
                                       _ADRPT 0003E7                               _TMR1_StartTimer 0804  
                                       _T1CLK 000321                                         _T1CON 00031E  
                                       _U1P1H 0002A6                                         _U1P2H 0002A8  
                                       _U1P1L 0002A5                                         _U1P3H 0002AA  
                                       _U1P2L 0002A7                                         _U1P3L 0002A9  
                                       _U1UIR 0002B1                                         _U1RXB 0002A1  
                                       _U1TXB 0002A3                                         i2l160 0314  
                                       i2l161 02F0                                         i2l165 0314  
                                       i2l157 0292                                         i2l159 02CC  
                                       i2l345 081E                                         i2l339 0688  
                                       i2l435 0814                                         i2l429 0656  
                                       i2l565 05E2                                         i2l582 081C  
                                       i2l575 0256                                         i2l568 05E4  
                                       i2l585 081A                                         i2l579 06E0  
                                       i2l588 080E                                         _OSCEN 0000B3  
                                       _TMR1H 00031D                                         _TMR1L 00031C  
                                       _TRISA 0004C6                                         _TRISB 0004C7  
                                       _TRISC 0004C8                              __end_of_TMR1_ISR 0658  
                                       main@i 0545                       __end_of_TMR1_Initialize 05A4  
                                       pclath 0004FA                                         tablat 0004F5  
                                       plusw1 0004E3                                         plusw2 0004DB  
                                       status 0004D8           __end_of_UART1_SetRxInterruptHandler 07B2  
                 _UART1_SetRxInterruptHandler 07A4           fp__UART1_DefaultFramingErrorHandler 0000  
    __end_of_UART1_DefaultFramingErrorHandler 081E     __size_of_UART1_DefaultFramingErrorHandler 0002  
          ??_UART1_DefaultFramingErrorHandler 0537             ?_UART1_DefaultFramingErrorHandler 0537  
            _UART1_DefaultFramingErrorHandler 081C                               _TMR1_WriteTimer 068A  
                             __initialization 05E6                                  __end_of_main 0198  
                 ??_UART1_DefaultErrorHandler 0537                   ?_INTERRUPT_InterruptManager 0537  
                                ?_UART1_Write 0537                                        ??_main 053C  
                               __activetblptr 000003          __size_of_UART1_SetTxInterruptHandler 000E  
                            _UART1_Initialize 0316                                        _ADACCH 0003E4  
                                      _ADACCL 0003E3                                        _ADACCU 0003E5  
                                      _ADACQH 0003EF                                        _ADACQL 0003EE  
                                      _ADCON0 0003F3                                        _ADCON1 0003F4  
                                      _ADCON2 0003F5                                        _ADCON3 0003F6  
                                      _ADERRH 0003DE                                        _ADERRL 0003DD  
                                      _ADLTHH 0003DA                                        _ACTCON 0000AC  
                                      _ADLTHL 0003D9                                        _ADRESH 0003EB  
                                      _ADRESL 0003EA                                        _ADPREH 0003F2  
                                      _ADPREL 0003F1                                        _ADSTAT 0003F7  
                                      _ADUTHH 0003DC                                        _ADUTHL 0003DB  
                                      _ANSELA 000400                                        _ANSELB 000408  
                                      _ANSELC 000410                                        _RB1I2C 000289  
                                      _T1GATE 000320                                        _RB2I2C 000288  
                                      _T1GCON 00031F                                        _U1CON0 0002AB  
                                      _U1CON1 0002AC                                        _U1CON2 0002AD  
                                      _RC3I2C 000287                                        _RC4I2C 000286  
                         __size_of_UART1_Read 0050                                        _U1BRGH 0002AF  
                                      _U1FIFO 0002B0                                        _U1BRGL 0002AE  
                                      _RC1PPS 000212                       TMR1_WriteTimer@timerVal 0537  
                                      _ODCONA 000402                                        _ODCONB 00040A  
                                      _ODCONC 000412                                        _RC6PPS 000217  
                                      _ODCONE 000422                                        i2l1351 06C8  
                                      i2l1353 06CA                                        i2l1355 06DA  
                                      i2l1453 0810                                        i2l1357 06DE  
                                      i2l1349 06B8                                        i2l1455 080A  
                                      i2l1551 05A4                                        i2l1473 0658  
                                      i2l1481 0628                                        i2l1561 05DC  
                                      i2l1553 05B4                                        i2l1475 065A  
                                      i2l1483 063C                                        i2l1571 01E0  
                                      i2l1563 0198                                        i2l1555 05C6  
                                      i2l1477 066E                                        i2l1581 0252  
                                      i2l1573 01F0                                        i2l1565 01A8  
                                      i2l1557 05C8                                        i2l1479 0626  
                                      i2l1575 01FE                                        i2l1567 01B8  
                                      i2l1559 05D8                                        i2l1591 02AE  
                                      i2l1583 0258                                        i2l1577 0218  
                                      i2l1569 01C6                                        i2l1593 02DA  
                                      i2l1585 0266                                        i2l1579 0234  
                                      i2l1595 02E8                                        i2l1587 0274  
                                      i2l1597 02FE                                        i2l1589 02A0  
                                      i2l1599 030C                                        _INLVLA 000404  
                                      _INLVLB 00040C                                        _INLVLC 000414  
                                      _INLVLE 000424                                        _OSCFRQ 0000B1  
                                      i2u1_40 06DA                                        i2u1_41 06D6  
                                      i2u2_40 066E                                        i2u2_41 066A  
                                      i2u3_48 0674                                        i2u4_40 063C  
                                      i2u3_49 0688                                        i2u4_41 0638  
                                      i2u5_48 0642                                        i2u5_49 0656  
                       _UART1_SetErrorHandler 07CE          __end_of_TMR1_DefaultInterruptHandler 0816  
       __size_of_TMR1_DefaultInterruptHandler 0006                  _TMR1_DefaultInterruptHandler 0810  
        __size_of_ADCC_SetADIInterruptHandler 000E                       __end_of_TMR1_StartTimer 080A  
                                      clear_0 060C                                        isa$std 000001  
                                   ?_ADCC_ISR 0537                               _ADCC_Initialize 0440  
                              _PMD_Initialize 0708                                  __pdataCOMRAM 0547  
                                      tblptrh 0004F7                                        tblptrl 0004F6  
                                      tblptru 0004F8   UART1_SetTxInterruptHandler@InterruptHandler 0537  
 UART1_SetRxInterruptHandler@InterruptHandler 0537      TMR1_SetInterruptHandler@InterruptHandler 0537  
 ADCC_SetADIInterruptHandler@InterruptHandler 0537          __end_of_UART1_SetOverrunErrorHandler 07C0  
       __size_of_UART1_SetOverrunErrorHandler 000E                  _UART1_SetOverrunErrorHandler 07B2  
                   _UART1_DefaultErrorHandler 080A                       __end_of_TMR1_WriteTimer 06B8  
               __size_of_INTERRUPT_Initialize 0004                  __size_of_UART1_RxDataHandler 002A  
                            ?_TMR1_Initialize 0537                             _SYSTEM_Initialize 072C  
                                  __accesstop 0560                       __end_of__initialization 0620  
                          ?_SYSTEM_Initialize 0537                                 ___rparam_used 000001  
                              __pcstackCOMRAM 0537                           ??_SYSTEM_Initialize 053C  
                                   ?_TMR1_ISR 0537               fp__TMR1_DefaultInterruptHandler 0000  
               ?_TMR1_DefaultInterruptHandler 0537                        __end_of_PMD_Initialize 072C  
                                  ??_ADCC_ISR 0537                     _UART1_FramingErrorHandler 0525  
                   __end_of_SYSTEM_Initialize 074E                 ?_UART1_SetOverrunErrorHandler 0537  
                      ?_UART1_SetErrorHandler 0537                                    __pnvCOMRAM 051F  
                                     IVTBASEH 00045E                                       IVTBASEL 00045D  
                                     IVTBASEU 00045F                                  ??_UART1_Read 0537  
                            ?_TMR1_StartTimer 0537                                    ??_TMR1_ISR 0537  
                     __end_of_ADCC_Initialize 04B0                                       _ADFLTRH 0003E2  
                                     _ADFLTRL 0003E1                                       _ADPREVH 0003E9  
                                     _ADPREVL 0003E8                                       _ADSTPTH 0003E0  
                                     _ADSTPTL 0003DF                               ?_PMD_Initialize 0537  
                           _UART1_Receive_ISR 0198                       __size_of_TMR1_StopTimer 0006  
                                     _NCO1CLK 000447                                       _NCO1CON 000446  
                                     _U1ERRIE 0002B3                                       _U1ERRIR 0002B2  
                        __size_of_UART1_Write 005A                            ?_UART1_Receive_ISR 0537  
                                     _U1RXPPS 000272                                       _OSCCON1 0000AD  
                                     _OSCCON3 0000AF                                       i2u20_40 01F0  
                                     i2u20_41 01EC                                       i2u22_40 0234  
                                     i2u21_48 0204                                       i2u30_40 02DA  
                                     i2u22_41 0230                                       i2u21_49 0218  
                                     i2u30_41 02D6                                       i2u31_40 02E8  
                                     i2u31_41 02E4                                       i2u23_48 023A  
                                     i2u16_40 05B4                                       i2u32_40 02FE  
                                     i2u24_40 0266                                       i2u23_49 024E  
                                     i2u16_41 05B0                                       i2u32_41 02FA  
                                     i2u24_41 0262                                       i2u17_40 05D8  
                                     i2u33_40 030C                                       i2u25_40 0274  
                                     i2u17_41 05D4                                       i2u33_41 0308  
                                     i2u25_41 0270                                       i2u18_40 01B8  
                                     i2u18_41 01B4                                       i2u27_40 02A0  
                                     i2u26_48 027A                                       i2u27_41 029C  
                                     i2u26_49 028E                                       i2u19_48 01CC  
                                     i2u28_40 02AE                                       i2u19_49 01E0  
                                     i2u28_41 02AA                                       i2u29_48 02B4  
                                     i2u29_49 02C8                                       _OSCTUNE 0000B0  
                                     _SLRCONA 000403                                       _SLRCONB 00040B  
                                     _SLRCONC 000413                           ??_UART1_Receive_ISR 0537  
                            ?_TMR1_WriteTimer 0537                            __end_of_UART1_Read 055A  
                                     __Hparam 0000                                       __Lparam 0000  
                    __end_of_UART1_Initialize 03C8                     __end_of_UART1_Receive_ISR 0258  
                                     __pcinit 05E6                                       __ramtop 2600  
                 __size_of_UART1_Transmit_ISR 0042                      __size_of_NCO1_Initialize 0026  
                                     __ptext0 001E                                       __ptext1 076A  
                                     __ptext2 0780                                       __ptext3 04B0  
                                     __ptext4 050A                                       __ptext5 068A  
                                     __ptext6 07FE                                       __ptext7 0804  
                                     __ptext8 072C                                       __ptext9 0316  
              ??_TMR1_DefaultInterruptHandler 0537                                     _T1CONbits 00031E  
                       _OSCILLATOR_Initialize 074E             __size_of_TMR1_SetInterruptHandler 000E  
                    ??_PIN_MANAGER_Initialize 0537                     ?_TMR1_SetInterruptHandler 0537  
                  __size_of_SYSTEM_Initialize 0022                                       main@tmp 0544  
                        end_of_initialization 0620           __end_of_UART1_SetTxInterruptHandler 07A4  
                 _UART1_SetTxInterruptHandler 0796                ??_UART1_SetOverrunErrorHandler 053A  
                                     postdec1 0004E5                                       postinc0 0004EE  
                                  main@F16335 0547                              ?_ADCC_Initialize 0537  
                           UART1_Write@txData 0537                           _UART1_RxDataHandler 06B8  
                           __size_of_ADCC_ISR 0032           __end_of_ADCC_SetADIInterruptHandler 07F8  
                 _ADCC_SetADIInterruptHandler 07EA                          ?_UART1_RxDataHandler 0537  
               ??_ADCC_SetADIInterruptHandler 053A                  __end_of_INTERRUPT_Initialize 081A  
              ??_ADCC_DefaultInterruptHandler 0537                    __size_of_UART1_Receive_ISR 00C0  
                               __pidataCOMRAM 07F8                             __size_of_TMR1_ISR 0032  
                              _TMR1_StopTimer 07FE                        ?_OSCILLATOR_Initialize 0537  
                         start_initialization 05E6               __size_of_PIN_MANAGER_Initialize 0078  
                           ??_NCO1_Initialize 0537                       ??_UART1_SetErrorHandler 053A  
                       ??_UART1_RxDataHandler 0537                                    ivt0x8_base 0008  
                               _uart1RxBuffer 0509                                 _uart1TxBuffer 0511  
                    __size_of_TMR1_Initialize 004A                              ??_PMD_Initialize 0537  
                      __end_of_TMR1_StopTimer 0804                                   __pbssCOMRAM 0501  
                          _UART1_ErrorHandler 051F                      _UART1_RxInterruptHandler 0531  
                fp__UART1_DefaultErrorHandler 0000                  ?_UART1_SetRxInterruptHandler 0537  
                      _PIN_MANAGER_Initialize 03C8                             ?_UART1_Initialize 0537  
        __end_of_UART1_SetFramingErrorHandler 07CE         __size_of_UART1_SetFramingErrorHandler 000E  
                _UART1_SetFramingErrorHandler 07C0              __end_of_TMR1_SetInterruptHandler 07EA  
                         UART1_Read@readValue 0537                            ??_UART1_Initialize 053A  
                             ?_TMR1_StopTimer 0537                              _uart1RxLastError 0519  
                               ??_UART1_Write 0537                  ??_INTERRUPT_InterruptManager 0537  
                                    _ADCC_ISR 0658                      __size_of_TMR1_StartTimer 0006  
         fp__UART1_DefaultOverrunErrorHandler 0000      __end_of_UART1_DefaultOverrunErrorHandler 081C  
   __size_of_UART1_DefaultOverrunErrorHandler 0002            ??_UART1_DefaultOverrunErrorHandler 0537  
           ?_UART1_DefaultOverrunErrorHandler 0537              _UART1_DefaultOverrunErrorHandler 081A  
                                 _NCO1CONbits 000446                                      _T1CKIPPS 000242  
                                 _U1ERRIRbits 0002B2                                      _NCO1ACCH 000441  
                                    _NCO1ACCL 000440                                      _NCO1ACCU 000442  
                        _INTERRUPT_Initialize 0816                                      _NCO1INCH 000444  
                                    _NCO1INCL 000443                                      _NCO1INCU 000445  
       UART1_SetErrorHandler@interruptHandler 0537                                      _PIE1bits 00049F  
                                    _PIE3bits 0004A1                                      _PIE4bits 0004A2  
                    __size_of_TMR1_WriteTimer 002E                 ??_UART1_SetRxInterruptHandler 053A  
         __size_of_INTERRUPT_InterruptManager 00BE                                      _PIR1bits 0004AF  
                                    _PIR3bits 0004B1                                      _PIR4bits 0004B2  
                                    _TMR1_ISR 0626                    __end_of_UART1_Transmit_ISR 05E6  
               ?_UART1_SetFramingErrorHandler 0537                             ??_TMR1_Initialize 053A  
                                  _ADCON0bits 0003F3                                    _ADCON1bits 0003F4  
                                  _ADCON2bits 0003F5                                    _ADCON3bits 0003F6  
                                   main@hello 053E                           __end_of_UART1_Write 050A  
                                 _INTCON0bits 0004D6                                     copy_data0 05FA  
                       ?_INTERRUPT_Initialize 0537                          fp__UART1_Receive_ISR 0000  
                      _uart1TxBufferRemaining 0536                                  _uart1RxCount 051A  
                                  _ADSTATbits 0003F7                                      __Hrparam 0000  
                                    __Lrparam 0000                       ??_OSCILLATOR_Initialize 0537  
                             _NCO1_Initialize 06E2                      _TMR1_SetInterruptHandler 07DC  
                       _TMR1_InterruptHandler 0528          __size_of_UART1_SetRxInterruptHandler 000E  
                    __size_of_ADCC_Initialize 0070                                      __pivt0x8 0008  
                                    __ptext10 0796                                      __ptext11 07A4  
                                    __ptext20 06E2                                      __ptext12 07B2  
                                    __ptext21 0816                                      __ptext13 07C0  
                                  _T1GCONbits 00031F                                      __ptext30 06B8  
                                    __ptext22 0440                                      __ptext14 07CE  
                                    __ptext31 0626                                      __ptext23 07EA  
                                    __ptext15 055A                                      __ptext32 0810  
                                    __ptext24 0258                                      __ptext16 07DC  
                                    __ptext33 0658                                      __ptext25 05A4  
                                    __ptext17 0708                                      __ptext34 081E  
                                    __ptext26 0198                                      __ptext18 03C8  
                                    __ptext35 0000                                      __ptext27 081A  
                                    __ptext19 074E                                      __ptext28 081C  
                                    __ptext29 080A                __size_of_UART1_SetErrorHandler 000E  
                           ??_TMR1_StartTimer 0537                 __end_of_UART1_SetErrorHandler 07DC  
                               __size_of_main 017A                     _UART1_OverrunErrorHandler 0522  
                   _ADCC_ADI_InterruptHandler 052B  UART1_SetOverrunErrorHandler@interruptHandler 0537  
                                    isa$xinst 000000            __size_of_UART1_DefaultErrorHandler 0006  
                  ?_UART1_DefaultErrorHandler 0537            __end_of_INTERRUPT_InterruptManager 0316  
                  _INTERRUPT_InterruptManager 0258                             ??_TMR1_WriteTimer 0539  
                           _UART1_is_rx_ready 0780                                   _UART1_Write 04B0  
                       fp__UART1_Transmit_ISR 0000                             _UART1_is_tx_ready 076A  
                          ?_UART1_is_rx_ready 0537                ??_UART1_SetFramingErrorHandler 053A  
                          ?_UART1_is_tx_ready 0537                   __end_of_UART1_RxDataHandler 06E2  
                                 _uart1RxHead 051C                                   _uart1TxHead 051E  
                                 _uart1RxTail 051B                                   _uart1TxTail 051D  
                      ??_INTERRUPT_Initialize 0537                           ??_UART1_is_rx_ready 0537  
                         ??_UART1_is_tx_ready 0537          __end_of_ADCC_DefaultInterruptHandler 0820  
       __size_of_ADCC_DefaultInterruptHandler 0002                  _ADCC_DefaultInterruptHandler 081E  
                                    intlevel2 0000                       ?_PIN_MANAGER_Initialize 0537  
                     __end_of_NCO1_Initialize 0708                              ??_TMR1_StopTimer 0537  
                         _uart1RxStatusBuffer 0501                     __end_of_UART1_is_rx_ready 0796  
                                  _UART1_Read 050A  UART1_SetFramingErrorHandler@interruptHandler 0537  
                   __end_of_UART1_is_tx_ready 0780             __end_of_UART1_DefaultErrorHandler 0810  
                   __size_of_UART1_Initialize 00B2                      _UART1_TxInterruptHandler 052E  
              __end_of_PIN_MANAGER_Initialize 0440                             ??_ADCC_Initialize 053A  
             fp__ADCC_DefaultInterruptHandler 0000                 ?_ADCC_DefaultInterruptHandler 0537  
                ?_UART1_SetTxInterruptHandler 0537                               _TMR1_Initialize 055A  
